
ATMEL_ETHERNET.elf:     file format elf32-avr

Sections:
Idx Name          Size      VMA       LMA       File off  Algn
  0 .data         0000029c  00800100  0000410c  000041a0  2**0
                  CONTENTS, ALLOC, LOAD, DATA
  1 .text         0000410c  00000000  00000000  00000094  2**1
                  CONTENTS, ALLOC, LOAD, READONLY, CODE
  2 .bss          00000489  0080039c  0080039c  0000443c  2**0
                  ALLOC
  3 .comment      0000005c  00000000  00000000  0000443c  2**0
                  CONTENTS, READONLY
  4 .note.gnu.avr.deviceinfo 00000040  00000000  00000000  00004498  2**2
                  CONTENTS, READONLY
  5 .debug_aranges 000005b8  00000000  00000000  000044d8  2**0
                  CONTENTS, READONLY, DEBUGGING
  6 .debug_info   0000a8ea  00000000  00000000  00004a90  2**0
                  CONTENTS, READONLY, DEBUGGING
  7 .debug_abbrev 000024e0  00000000  00000000  0000f37a  2**0
                  CONTENTS, READONLY, DEBUGGING
  8 .debug_line   00003f16  00000000  00000000  0001185a  2**0
                  CONTENTS, READONLY, DEBUGGING
  9 .debug_frame  00001824  00000000  00000000  00015770  2**2
                  CONTENTS, READONLY, DEBUGGING
 10 .debug_str    00001ed2  00000000  00000000  00016f94  2**0
                  CONTENTS, READONLY, DEBUGGING
 11 .debug_loc    00009c95  00000000  00000000  00018e66  2**0
                  CONTENTS, READONLY, DEBUGGING
 12 .debug_ranges 000005c8  00000000  00000000  00022afb  2**0
                  CONTENTS, READONLY, DEBUGGING

Disassembly of section .text:

00000000 <__vectors>:
       0:	0c 94 63 00 	jmp	0xc6	; 0xc6 <__ctors_end>
       4:	0c 94 8b 00 	jmp	0x116	; 0x116 <__bad_interrupt>
       8:	0c 94 8b 00 	jmp	0x116	; 0x116 <__bad_interrupt>
       c:	0c 94 8b 00 	jmp	0x116	; 0x116 <__bad_interrupt>
      10:	0c 94 8b 00 	jmp	0x116	; 0x116 <__bad_interrupt>
      14:	0c 94 8b 00 	jmp	0x116	; 0x116 <__bad_interrupt>
      18:	0c 94 8b 00 	jmp	0x116	; 0x116 <__bad_interrupt>
      1c:	0c 94 8b 00 	jmp	0x116	; 0x116 <__bad_interrupt>
      20:	0c 94 8b 00 	jmp	0x116	; 0x116 <__bad_interrupt>
      24:	0c 94 8b 00 	jmp	0x116	; 0x116 <__bad_interrupt>
      28:	0c 94 8b 00 	jmp	0x116	; 0x116 <__bad_interrupt>
      2c:	0c 94 8b 00 	jmp	0x116	; 0x116 <__bad_interrupt>
      30:	0c 94 8b 00 	jmp	0x116	; 0x116 <__bad_interrupt>
      34:	0c 94 8b 00 	jmp	0x116	; 0x116 <__bad_interrupt>
      38:	0c 94 7c 1a 	jmp	0x34f8	; 0x34f8 <__vector_14>
      3c:	0c 94 8b 00 	jmp	0x116	; 0x116 <__bad_interrupt>
      40:	0c 94 8b 00 	jmp	0x116	; 0x116 <__bad_interrupt>
      44:	0c 94 8b 00 	jmp	0x116	; 0x116 <__bad_interrupt>
      48:	0c 94 8b 00 	jmp	0x116	; 0x116 <__bad_interrupt>
      4c:	0c 94 8b 00 	jmp	0x116	; 0x116 <__bad_interrupt>
      50:	0c 94 8b 00 	jmp	0x116	; 0x116 <__bad_interrupt>
      54:	0c 94 8b 00 	jmp	0x116	; 0x116 <__bad_interrupt>
      58:	0c 94 8b 00 	jmp	0x116	; 0x116 <__bad_interrupt>
      5c:	0c 94 8b 00 	jmp	0x116	; 0x116 <__bad_interrupt>
      60:	0c 94 8b 00 	jmp	0x116	; 0x116 <__bad_interrupt>
      64:	0c 94 8b 00 	jmp	0x116	; 0x116 <__bad_interrupt>
      68:	bc 1a       	sub	r11, r28
      6a:	c5 1a       	sub	r12, r21
      6c:	ce 1a       	sub	r12, r30
      6e:	d7 1a       	sub	r13, r23
      70:	e0 1a       	sub	r14, r16
      72:	e9 1a       	sub	r14, r25
      74:	f2 1a       	sub	r15, r18
      76:	fb 1a       	sub	r15, r27
      78:	15 1b       	sub	r17, r21
      7a:	1e 1b       	sub	r17, r30
      7c:	27 1b       	sub	r18, r23
      7e:	30 1b       	sub	r19, r16
      80:	39 1b       	sub	r19, r25
      82:	42 1b       	sub	r20, r18
      84:	4b 1b       	sub	r20, r27
      86:	65 1b       	sub	r22, r21
      88:	6d 1b       	sub	r22, r29
      8a:	75 1b       	sub	r23, r21
      8c:	7d 1b       	sub	r23, r29
      8e:	85 1b       	sub	r24, r21
      90:	8d 1b       	sub	r24, r29
      92:	95 1b       	sub	r25, r21
      94:	9d 1b       	sub	r25, r29
      96:	c0 1b       	sub	r28, r16
      98:	cd 1b       	sub	r28, r29
      9a:	da 1b       	sub	r29, r26
      9c:	e7 1b       	sub	r30, r23
      9e:	f4 1b       	sub	r31, r20
      a0:	01 1c       	adc	r0, r1
      a2:	0e 1c       	adc	r0, r14
      a4:	1b 1c       	adc	r1, r11
      a6:	39 1c       	adc	r3, r9
      a8:	46 1c       	adc	r4, r6
      aa:	53 1c       	adc	r5, r3
      ac:	60 1c       	adc	r6, r0
      ae:	6d 1c       	adc	r6, r13
      b0:	7a 1c       	adc	r7, r10
      b2:	87 1c       	adc	r8, r7
      b4:	a5 1c       	adc	r10, r5
      b6:	b0 1c       	adc	r11, r0
      b8:	bb 1c       	adc	r11, r11
      ba:	c6 1c       	adc	r12, r6
      bc:	d1 1c       	adc	r13, r1
      be:	dc 1c       	adc	r13, r12
      c0:	e7 1c       	adc	r14, r7
      c2:	f2 1c       	adc	r15, r2

000000c4 <__ctors_start>:
      c4:	a0 1a       	sub	r10, r16

000000c6 <__ctors_end>:
      c6:	11 24       	eor	r1, r1
      c8:	1f be       	out	0x3f, r1	; 63
      ca:	cf ef       	ldi	r28, 0xFF	; 255
      cc:	d8 e0       	ldi	r29, 0x08	; 8
      ce:	de bf       	out	0x3e, r29	; 62
      d0:	cd bf       	out	0x3d, r28	; 61

000000d2 <__do_copy_data>:
      d2:	13 e0       	ldi	r17, 0x03	; 3
      d4:	a0 e0       	ldi	r26, 0x00	; 0
      d6:	b1 e0       	ldi	r27, 0x01	; 1
      d8:	ec e0       	ldi	r30, 0x0C	; 12
      da:	f1 e4       	ldi	r31, 0x41	; 65
      dc:	02 c0       	rjmp	.+4      	; 0xe2 <__do_copy_data+0x10>
      de:	05 90       	lpm	r0, Z+
      e0:	0d 92       	st	X+, r0
      e2:	ac 39       	cpi	r26, 0x9C	; 156
      e4:	b1 07       	cpc	r27, r17
      e6:	d9 f7       	brne	.-10     	; 0xde <__do_copy_data+0xc>

000000e8 <__do_clear_bss>:
      e8:	28 e0       	ldi	r18, 0x08	; 8
      ea:	ac e9       	ldi	r26, 0x9C	; 156
      ec:	b3 e0       	ldi	r27, 0x03	; 3
      ee:	01 c0       	rjmp	.+2      	; 0xf2 <.do_clear_bss_start>

000000f0 <.do_clear_bss_loop>:
      f0:	1d 92       	st	X+, r1

000000f2 <.do_clear_bss_start>:
      f2:	a5 32       	cpi	r26, 0x25	; 37
      f4:	b2 07       	cpc	r27, r18
      f6:	e1 f7       	brne	.-8      	; 0xf0 <.do_clear_bss_loop>

000000f8 <__do_global_ctors>:
      f8:	10 e0       	ldi	r17, 0x00	; 0
      fa:	c3 e6       	ldi	r28, 0x63	; 99
      fc:	d0 e0       	ldi	r29, 0x00	; 0
      fe:	04 c0       	rjmp	.+8      	; 0x108 <__do_global_ctors+0x10>
     100:	21 97       	sbiw	r28, 0x01	; 1
     102:	fe 01       	movw	r30, r28
     104:	0e 94 48 1d 	call	0x3a90	; 0x3a90 <__tablejump2__>
     108:	c2 36       	cpi	r28, 0x62	; 98
     10a:	d1 07       	cpc	r29, r17
     10c:	c9 f7       	brne	.-14     	; 0x100 <__do_global_ctors+0x8>
     10e:	0e 94 37 19 	call	0x326e	; 0x326e <main>
     112:	0c 94 84 20 	jmp	0x4108	; 0x4108 <_exit>

00000116 <__bad_interrupt>:
     116:	0c 94 00 00 	jmp	0	; 0x0 <__vectors>

0000011a <close>:
   {
         close(sn);
         return SOCKERR_SOCKCLOSED;
   }
   return SOCK_OK;
}
     11a:	8f 92       	push	r8
     11c:	9f 92       	push	r9
     11e:	af 92       	push	r10
     120:	bf 92       	push	r11
     122:	cf 92       	push	r12
     124:	df 92       	push	r13
     126:	ef 92       	push	r14
     128:	ff 92       	push	r15
     12a:	cf 93       	push	r28
     12c:	df 93       	push	r29
     12e:	85 30       	cpi	r24, 0x05	; 5
     130:	08 f0       	brcs	.+2      	; 0x134 <close+0x1a>
     132:	5c c0       	rjmp	.+184    	; 0x1ec <close+0xd2>
     134:	f8 2e       	mov	r15, r24
     136:	c8 2f       	mov	r28, r24
     138:	d0 e0       	ldi	r29, 0x00	; 0
     13a:	6e 01       	movw	r12, r28
     13c:	84 e0       	ldi	r24, 0x04	; 4
     13e:	c8 0e       	add	r12, r24
     140:	d1 1c       	adc	r13, r1
     142:	dc 2c       	mov	r13, r12
     144:	cc 24       	eor	r12, r12
     146:	46 01       	movw	r8, r12
     148:	8f ef       	ldi	r24, 0xFF	; 255
     14a:	88 1a       	sub	r8, r24
     14c:	98 0a       	sbc	r9, r24
     14e:	09 2c       	mov	r0, r9
     150:	00 0c       	add	r0, r0
     152:	aa 08       	sbc	r10, r10
     154:	bb 08       	sbc	r11, r11
     156:	40 e1       	ldi	r20, 0x10	; 16
     158:	c5 01       	movw	r24, r10
     15a:	b4 01       	movw	r22, r8
     15c:	0e 94 c7 05 	call	0xb8e	; 0xb8e <WIZCHIP_WRITE>
     160:	c5 01       	movw	r24, r10
     162:	b4 01       	movw	r22, r8
     164:	0e 94 f3 05 	call	0xbe6	; 0xbe6 <WIZCHIP_READ>
     168:	81 11       	cpse	r24, r1
     16a:	fa cf       	rjmp	.-12     	; 0x160 <close+0x46>
     16c:	b6 01       	movw	r22, r12
     16e:	6e 5f       	subi	r22, 0xFE	; 254
     170:	7f 4f       	sbci	r23, 0xFF	; 255
     172:	07 2e       	mov	r0, r23
     174:	00 0c       	add	r0, r0
     176:	88 0b       	sbc	r24, r24
     178:	99 0b       	sbc	r25, r25
     17a:	4f ef       	ldi	r20, 0xFF	; 255
     17c:	0e 94 c7 05 	call	0xb8e	; 0xb8e <WIZCHIP_WRITE>
     180:	81 e0       	ldi	r24, 0x01	; 1
     182:	90 e0       	ldi	r25, 0x00	; 0
     184:	02 c0       	rjmp	.+4      	; 0x18a <close+0x70>
     186:	88 0f       	add	r24, r24
     188:	99 1f       	adc	r25, r25
     18a:	fa 94       	dec	r15
     18c:	e2 f7       	brpl	.-8      	; 0x186 <close+0x6c>
     18e:	80 95       	com	r24
     190:	90 95       	com	r25
     192:	20 91 aa 03 	lds	r18, 0x03AA	; 0x8003aa <sock_io_mode>
     196:	30 91 ab 03 	lds	r19, 0x03AB	; 0x8003ab <sock_io_mode+0x1>
     19a:	28 23       	and	r18, r24
     19c:	39 23       	and	r19, r25
     19e:	30 93 ab 03 	sts	0x03AB, r19	; 0x8003ab <sock_io_mode+0x1>
     1a2:	20 93 aa 03 	sts	0x03AA, r18	; 0x8003aa <sock_io_mode>
     1a6:	20 91 a8 03 	lds	r18, 0x03A8	; 0x8003a8 <sock_is_sending>
     1aa:	30 91 a9 03 	lds	r19, 0x03A9	; 0x8003a9 <sock_is_sending+0x1>
     1ae:	82 23       	and	r24, r18
     1b0:	93 23       	and	r25, r19
     1b2:	90 93 a9 03 	sts	0x03A9, r25	; 0x8003a9 <sock_is_sending+0x1>
     1b6:	80 93 a8 03 	sts	0x03A8, r24	; 0x8003a8 <sock_is_sending>
     1ba:	fe 01       	movw	r30, r28
     1bc:	ee 0f       	add	r30, r30
     1be:	ff 1f       	adc	r31, r31
     1c0:	e0 56       	subi	r30, 0x60	; 96
     1c2:	fc 4f       	sbci	r31, 0xFC	; 252
     1c4:	11 82       	std	Z+1, r1	; 0x01
     1c6:	10 82       	st	Z, r1
     1c8:	c4 56       	subi	r28, 0x64	; 100
     1ca:	dc 4f       	sbci	r29, 0xFC	; 252
     1cc:	18 82       	st	Y, r1
     1ce:	83 e0       	ldi	r24, 0x03	; 3
     1d0:	c8 0e       	add	r12, r24
     1d2:	d1 1c       	adc	r13, r1
     1d4:	0d 2c       	mov	r0, r13
     1d6:	00 0c       	add	r0, r0
     1d8:	ee 08       	sbc	r14, r14
     1da:	ff 08       	sbc	r15, r15
     1dc:	c7 01       	movw	r24, r14
     1de:	b6 01       	movw	r22, r12
     1e0:	0e 94 f3 05 	call	0xbe6	; 0xbe6 <WIZCHIP_READ>
     1e4:	81 11       	cpse	r24, r1
     1e6:	fa cf       	rjmp	.-12     	; 0x1dc <close+0xc2>
     1e8:	81 e0       	ldi	r24, 0x01	; 1
     1ea:	01 c0       	rjmp	.+2      	; 0x1ee <close+0xd4>
     1ec:	8f ef       	ldi	r24, 0xFF	; 255
     1ee:	df 91       	pop	r29
     1f0:	cf 91       	pop	r28
     1f2:	ff 90       	pop	r15
     1f4:	ef 90       	pop	r14
     1f6:	df 90       	pop	r13
     1f8:	cf 90       	pop	r12
     1fa:	bf 90       	pop	r11
     1fc:	af 90       	pop	r10
     1fe:	9f 90       	pop	r9
     200:	8f 90       	pop	r8
     202:	08 95       	ret

00000204 <socket>:
     204:	4f 92       	push	r4
     206:	5f 92       	push	r5
     208:	6f 92       	push	r6
     20a:	7f 92       	push	r7
     20c:	af 92       	push	r10
     20e:	bf 92       	push	r11
     210:	cf 92       	push	r12
     212:	df 92       	push	r13
     214:	ef 92       	push	r14
     216:	ff 92       	push	r15
     218:	0f 93       	push	r16
     21a:	1f 93       	push	r17
     21c:	cf 93       	push	r28
     21e:	df 93       	push	r29
     220:	00 d0       	rcall	.+0      	; 0x222 <socket+0x1e>
     222:	00 d0       	rcall	.+0      	; 0x224 <socket+0x20>
     224:	cd b7       	in	r28, 0x3d	; 61
     226:	de b7       	in	r29, 0x3e	; 62
     228:	18 2f       	mov	r17, r24
     22a:	56 2e       	mov	r5, r22
     22c:	3a 01       	movw	r6, r20
     22e:	02 2f       	mov	r16, r18
     230:	85 30       	cpi	r24, 0x05	; 5
     232:	08 f0       	brcs	.+2      	; 0x236 <socket+0x32>
     234:	cb c0       	rjmp	.+406    	; 0x3cc <socket+0x1c8>
     236:	21 e0       	ldi	r18, 0x01	; 1
     238:	62 17       	cp	r22, r18
     23a:	39 f0       	breq	.+14     	; 0x24a <socket+0x46>
     23c:	62 17       	cp	r22, r18
     23e:	08 f4       	brcc	.+2      	; 0x242 <socket+0x3e>
     240:	c7 c0       	rjmp	.+398    	; 0x3d0 <socket+0x1cc>
     242:	85 e0       	ldi	r24, 0x05	; 5
     244:	86 17       	cp	r24, r22
     246:	b0 f4       	brcc	.+44     	; 0x274 <socket+0x70>
     248:	c3 c0       	rjmp	.+390    	; 0x3d0 <socket+0x1cc>
     24a:	24 e0       	ldi	r18, 0x04	; 4
     24c:	30 e0       	ldi	r19, 0x00	; 0
     24e:	ae 01       	movw	r20, r28
     250:	4f 5f       	subi	r20, 0xFF	; 255
     252:	5f 4f       	sbci	r21, 0xFF	; 255
     254:	6f e0       	ldi	r22, 0x0F	; 15
     256:	70 e0       	ldi	r23, 0x00	; 0
     258:	80 e0       	ldi	r24, 0x00	; 0
     25a:	90 e0       	ldi	r25, 0x00	; 0
     25c:	0e 94 79 06 	call	0xcf2	; 0xcf2 <WIZCHIP_READ_BUF>
     260:	89 81       	ldd	r24, Y+1	; 0x01
     262:	9a 81       	ldd	r25, Y+2	; 0x02
     264:	ab 81       	ldd	r26, Y+3	; 0x03
     266:	bc 81       	ldd	r27, Y+4	; 0x04
     268:	89 2b       	or	r24, r25
     26a:	8a 2b       	or	r24, r26
     26c:	8b 2b       	or	r24, r27
     26e:	11 f4       	brne	.+4      	; 0x274 <socket+0x70>
     270:	8d ef       	ldi	r24, 0xFD	; 253
     272:	b5 c0       	rjmp	.+362    	; 0x3de <socket+0x1da>
     274:	02 fd       	sbrc	r16, 2
     276:	ae c0       	rjmp	.+348    	; 0x3d4 <socket+0x1d0>
     278:	00 23       	and	r16, r16
     27a:	81 f0       	breq	.+32     	; 0x29c <socket+0x98>
     27c:	21 e0       	ldi	r18, 0x01	; 1
     27e:	52 16       	cp	r5, r18
     280:	21 f0       	breq	.+8      	; 0x28a <socket+0x86>
     282:	82 e0       	ldi	r24, 0x02	; 2
     284:	58 16       	cp	r5, r24
     286:	29 f0       	breq	.+10     	; 0x292 <socket+0x8e>
     288:	09 c0       	rjmp	.+18     	; 0x29c <socket+0x98>
     28a:	80 2f       	mov	r24, r16
     28c:	81 72       	andi	r24, 0x21	; 33
     28e:	31 f4       	brne	.+12     	; 0x29c <socket+0x98>
     290:	a3 c0       	rjmp	.+326    	; 0x3d8 <socket+0x1d4>
     292:	05 ff       	sbrs	r16, 5
     294:	03 c0       	rjmp	.+6      	; 0x29c <socket+0x98>
     296:	00 23       	and	r16, r16
     298:	0c f0       	brlt	.+2      	; 0x29c <socket+0x98>
     29a:	a0 c0       	rjmp	.+320    	; 0x3dc <socket+0x1d8>
     29c:	81 2f       	mov	r24, r17
     29e:	0e 94 8d 00 	call	0x11a	; 0x11a <close>
     2a2:	a1 2e       	mov	r10, r17
     2a4:	b1 2c       	mov	r11, r1
     2a6:	65 01       	movw	r12, r10
     2a8:	24 e0       	ldi	r18, 0x04	; 4
     2aa:	c2 0e       	add	r12, r18
     2ac:	d1 1c       	adc	r13, r1
     2ae:	dc 2c       	mov	r13, r12
     2b0:	cc 24       	eor	r12, r12
     2b2:	40 2f       	mov	r20, r16
     2b4:	40 7f       	andi	r20, 0xF0	; 240
     2b6:	45 29       	or	r20, r5
     2b8:	b6 01       	movw	r22, r12
     2ba:	0d 2c       	mov	r0, r13
     2bc:	00 0c       	add	r0, r0
     2be:	88 0b       	sbc	r24, r24
     2c0:	99 0b       	sbc	r25, r25
     2c2:	0e 94 c7 05 	call	0xb8e	; 0xb8e <WIZCHIP_WRITE>
     2c6:	61 14       	cp	r6, r1
     2c8:	71 04       	cpc	r7, r1
     2ca:	a9 f4       	brne	.+42     	; 0x2f6 <socket+0xf2>
     2cc:	60 90 00 01 	lds	r6, 0x0100	; 0x800100 <__data_start>
     2d0:	70 90 01 01 	lds	r7, 0x0101	; 0x800101 <__data_start+0x1>
     2d4:	c3 01       	movw	r24, r6
     2d6:	01 96       	adiw	r24, 0x01	; 1
     2d8:	80 3f       	cpi	r24, 0xF0	; 240
     2da:	2f ef       	ldi	r18, 0xFF	; 255
     2dc:	92 07       	cpc	r25, r18
     2de:	29 f0       	breq	.+10     	; 0x2ea <socket+0xe6>
     2e0:	90 93 01 01 	sts	0x0101, r25	; 0x800101 <__data_start+0x1>
     2e4:	80 93 00 01 	sts	0x0100, r24	; 0x800100 <__data_start>
     2e8:	06 c0       	rjmp	.+12     	; 0x2f6 <socket+0xf2>
     2ea:	80 e0       	ldi	r24, 0x00	; 0
     2ec:	90 ec       	ldi	r25, 0xC0	; 192
     2ee:	90 93 01 01 	sts	0x0101, r25	; 0x800101 <__data_start+0x1>
     2f2:	80 93 00 01 	sts	0x0100, r24	; 0x800100 <__data_start>
     2f6:	b6 01       	movw	r22, r12
     2f8:	6c 5f       	subi	r22, 0xFC	; 252
     2fa:	7f 4f       	sbci	r23, 0xFF	; 255
     2fc:	07 2e       	mov	r0, r23
     2fe:	00 0c       	add	r0, r0
     300:	88 0b       	sbc	r24, r24
     302:	99 0b       	sbc	r25, r25
     304:	47 2d       	mov	r20, r7
     306:	0e 94 c7 05 	call	0xb8e	; 0xb8e <WIZCHIP_WRITE>
     30a:	b6 01       	movw	r22, r12
     30c:	6b 5f       	subi	r22, 0xFB	; 251
     30e:	7f 4f       	sbci	r23, 0xFF	; 255
     310:	07 2e       	mov	r0, r23
     312:	00 0c       	add	r0, r0
     314:	88 0b       	sbc	r24, r24
     316:	99 0b       	sbc	r25, r25
     318:	46 2d       	mov	r20, r6
     31a:	0e 94 c7 05 	call	0xb8e	; 0xb8e <WIZCHIP_WRITE>
     31e:	26 01       	movw	r4, r12
     320:	8f ef       	ldi	r24, 0xFF	; 255
     322:	48 1a       	sub	r4, r24
     324:	58 0a       	sbc	r5, r24
     326:	05 2c       	mov	r0, r5
     328:	00 0c       	add	r0, r0
     32a:	66 08       	sbc	r6, r6
     32c:	77 08       	sbc	r7, r7
     32e:	41 e0       	ldi	r20, 0x01	; 1
     330:	c3 01       	movw	r24, r6
     332:	b2 01       	movw	r22, r4
     334:	0e 94 c7 05 	call	0xb8e	; 0xb8e <WIZCHIP_WRITE>
     338:	c3 01       	movw	r24, r6
     33a:	b2 01       	movw	r22, r4
     33c:	0e 94 f3 05 	call	0xbe6	; 0xbe6 <WIZCHIP_READ>
     340:	81 11       	cpse	r24, r1
     342:	fa cf       	rjmp	.-12     	; 0x338 <socket+0x134>
     344:	81 e0       	ldi	r24, 0x01	; 1
     346:	90 e0       	ldi	r25, 0x00	; 0
     348:	01 2e       	mov	r0, r17
     34a:	02 c0       	rjmp	.+4      	; 0x350 <socket+0x14c>
     34c:	88 0f       	add	r24, r24
     34e:	99 1f       	adc	r25, r25
     350:	0a 94       	dec	r0
     352:	e2 f7       	brpl	.-8      	; 0x34c <socket+0x148>
     354:	80 95       	com	r24
     356:	90 95       	com	r25
     358:	20 91 aa 03 	lds	r18, 0x03AA	; 0x8003aa <sock_io_mode>
     35c:	30 91 ab 03 	lds	r19, 0x03AB	; 0x8003ab <sock_io_mode+0x1>
     360:	28 23       	and	r18, r24
     362:	39 23       	and	r19, r25
     364:	00 fb       	bst	r16, 0
     366:	ee 24       	eor	r14, r14
     368:	e0 f8       	bld	r14, 0
     36a:	f1 2c       	mov	r15, r1
     36c:	01 2e       	mov	r0, r17
     36e:	02 c0       	rjmp	.+4      	; 0x374 <socket+0x170>
     370:	ee 0c       	add	r14, r14
     372:	ff 1c       	adc	r15, r15
     374:	0a 94       	dec	r0
     376:	e2 f7       	brpl	.-8      	; 0x370 <socket+0x16c>
     378:	e2 2a       	or	r14, r18
     37a:	f3 2a       	or	r15, r19
     37c:	f0 92 ab 03 	sts	0x03AB, r15	; 0x8003ab <sock_io_mode+0x1>
     380:	e0 92 aa 03 	sts	0x03AA, r14	; 0x8003aa <sock_io_mode>
     384:	20 91 a8 03 	lds	r18, 0x03A8	; 0x8003a8 <sock_is_sending>
     388:	30 91 a9 03 	lds	r19, 0x03A9	; 0x8003a9 <sock_is_sending+0x1>
     38c:	82 23       	and	r24, r18
     38e:	93 23       	and	r25, r19
     390:	90 93 a9 03 	sts	0x03A9, r25	; 0x8003a9 <sock_is_sending+0x1>
     394:	80 93 a8 03 	sts	0x03A8, r24	; 0x8003a8 <sock_is_sending>
     398:	f5 01       	movw	r30, r10
     39a:	ee 0f       	add	r30, r30
     39c:	ff 1f       	adc	r31, r31
     39e:	e0 56       	subi	r30, 0x60	; 96
     3a0:	fc 4f       	sbci	r31, 0xFC	; 252
     3a2:	11 82       	std	Z+1, r1	; 0x01
     3a4:	10 82       	st	Z, r1
     3a6:	f5 01       	movw	r30, r10
     3a8:	e4 56       	subi	r30, 0x64	; 100
     3aa:	fc 4f       	sbci	r31, 0xFC	; 252
     3ac:	10 82       	st	Z, r1
     3ae:	23 e0       	ldi	r18, 0x03	; 3
     3b0:	c2 0e       	add	r12, r18
     3b2:	d1 1c       	adc	r13, r1
     3b4:	0d 2c       	mov	r0, r13
     3b6:	00 0c       	add	r0, r0
     3b8:	ee 08       	sbc	r14, r14
     3ba:	ff 08       	sbc	r15, r15
     3bc:	c7 01       	movw	r24, r14
     3be:	b6 01       	movw	r22, r12
     3c0:	0e 94 f3 05 	call	0xbe6	; 0xbe6 <WIZCHIP_READ>
     3c4:	88 23       	and	r24, r24
     3c6:	d1 f3       	breq	.-12     	; 0x3bc <socket+0x1b8>
     3c8:	81 2f       	mov	r24, r17
     3ca:	09 c0       	rjmp	.+18     	; 0x3de <socket+0x1da>
     3cc:	8f ef       	ldi	r24, 0xFF	; 255
     3ce:	07 c0       	rjmp	.+14     	; 0x3de <socket+0x1da>
     3d0:	8b ef       	ldi	r24, 0xFB	; 251
     3d2:	05 c0       	rjmp	.+10     	; 0x3de <socket+0x1da>
     3d4:	8a ef       	ldi	r24, 0xFA	; 250
     3d6:	03 c0       	rjmp	.+6      	; 0x3de <socket+0x1da>
     3d8:	8a ef       	ldi	r24, 0xFA	; 250
     3da:	01 c0       	rjmp	.+2      	; 0x3de <socket+0x1da>
     3dc:	8a ef       	ldi	r24, 0xFA	; 250
     3de:	0f 90       	pop	r0
     3e0:	0f 90       	pop	r0
     3e2:	0f 90       	pop	r0
     3e4:	0f 90       	pop	r0
     3e6:	df 91       	pop	r29
     3e8:	cf 91       	pop	r28
     3ea:	1f 91       	pop	r17
     3ec:	0f 91       	pop	r16
     3ee:	ff 90       	pop	r15
     3f0:	ef 90       	pop	r14
     3f2:	df 90       	pop	r13
     3f4:	cf 90       	pop	r12
     3f6:	bf 90       	pop	r11
     3f8:	af 90       	pop	r10
     3fa:	7f 90       	pop	r7
     3fc:	6f 90       	pop	r6
     3fe:	5f 90       	pop	r5
     400:	4f 90       	pop	r4
     402:	08 95       	ret

00000404 <connect>:


int8_t connect(uint8_t sn, uint8_t * addr, uint16_t port)
{
     404:	4f 92       	push	r4
     406:	5f 92       	push	r5
     408:	6f 92       	push	r6
     40a:	7f 92       	push	r7
     40c:	8f 92       	push	r8
     40e:	9f 92       	push	r9
     410:	af 92       	push	r10
     412:	bf 92       	push	r11
     414:	cf 92       	push	r12
     416:	df 92       	push	r13
     418:	ef 92       	push	r14
     41a:	ff 92       	push	r15
     41c:	1f 93       	push	r17
     41e:	cf 93       	push	r28
     420:	df 93       	push	r29
   CHECK_SOCKNUM();
     422:	85 30       	cpi	r24, 0x05	; 5
     424:	08 f0       	brcs	.+2      	; 0x428 <connect+0x24>
     426:	ba c0       	rjmp	.+372    	; 0x59c <connect+0x198>
     428:	7a 01       	movw	r14, r20
     42a:	eb 01       	movw	r28, r22
     42c:	18 2f       	mov	r17, r24
   CHECK_SOCKMODE(Sn_MR_TCP);
     42e:	c8 2e       	mov	r12, r24
     430:	d1 2c       	mov	r13, r1
     432:	84 e0       	ldi	r24, 0x04	; 4
     434:	c8 0e       	add	r12, r24
     436:	d1 1c       	adc	r13, r1
     438:	dc 2c       	mov	r13, r12
     43a:	cc 24       	eor	r12, r12
     43c:	b6 01       	movw	r22, r12
     43e:	0d 2c       	mov	r0, r13
     440:	00 0c       	add	r0, r0
     442:	88 0b       	sbc	r24, r24
     444:	99 0b       	sbc	r25, r25
     446:	0e 94 f3 05 	call	0xbe6	; 0xbe6 <WIZCHIP_READ>
     44a:	8f 70       	andi	r24, 0x0F	; 15
     44c:	81 30       	cpi	r24, 0x01	; 1
     44e:	09 f0       	breq	.+2      	; 0x452 <connect+0x4e>
     450:	a7 c0       	rjmp	.+334    	; 0x5a0 <connect+0x19c>
   CHECK_SOCKINIT();
     452:	46 01       	movw	r8, r12
     454:	83 e0       	ldi	r24, 0x03	; 3
     456:	88 0e       	add	r8, r24
     458:	91 1c       	adc	r9, r1
     45a:	09 2c       	mov	r0, r9
     45c:	00 0c       	add	r0, r0
     45e:	aa 08       	sbc	r10, r10
     460:	bb 08       	sbc	r11, r11
     462:	c5 01       	movw	r24, r10
     464:	b4 01       	movw	r22, r8
     466:	0e 94 f3 05 	call	0xbe6	; 0xbe6 <WIZCHIP_READ>
     46a:	83 31       	cpi	r24, 0x13	; 19
     46c:	09 f0       	breq	.+2      	; 0x470 <connect+0x6c>
     46e:	9a c0       	rjmp	.+308    	; 0x5a4 <connect+0x1a0>
   //M20140501 : For avoiding fatal error on memory align mismatched
   //if( *((uint32_t*)addr) == 0xFFFFFFFF || *((uint32_t*)addr) == 0) return SOCKERR_IPINVALID;
   {
      uint32_t taddr;
      taddr = ((uint32_t)addr[0] & 0x000000FF);
      taddr = (taddr << 8) + ((uint32_t)addr[1] & 0x000000FF);
     470:	48 81       	ld	r20, Y
     472:	50 e0       	ldi	r21, 0x00	; 0
     474:	60 e0       	ldi	r22, 0x00	; 0
     476:	70 e0       	ldi	r23, 0x00	; 0
     478:	76 2f       	mov	r23, r22
     47a:	65 2f       	mov	r22, r21
     47c:	54 2f       	mov	r21, r20
     47e:	44 27       	eor	r20, r20
      taddr = (taddr << 8) + ((uint32_t)addr[2] & 0x000000FF);
     480:	89 81       	ldd	r24, Y+1	; 0x01
     482:	48 0f       	add	r20, r24
     484:	51 1d       	adc	r21, r1
     486:	61 1d       	adc	r22, r1
     488:	71 1d       	adc	r23, r1
     48a:	76 2f       	mov	r23, r22
     48c:	65 2f       	mov	r22, r21
     48e:	54 2f       	mov	r21, r20
     490:	44 27       	eor	r20, r20
      taddr = (taddr << 8) + ((uint32_t)addr[3] & 0x000000FF);
      if( taddr == 0xFFFFFFFF || taddr == 0) return SOCKERR_IPINVALID;
     492:	8a 81       	ldd	r24, Y+2	; 0x02
     494:	48 0f       	add	r20, r24
     496:	51 1d       	adc	r21, r1
     498:	61 1d       	adc	r22, r1
     49a:	71 1d       	adc	r23, r1
     49c:	76 2f       	mov	r23, r22
     49e:	65 2f       	mov	r22, r21
     4a0:	54 2f       	mov	r21, r20
     4a2:	44 27       	eor	r20, r20
     4a4:	8b 81       	ldd	r24, Y+3	; 0x03
     4a6:	90 e0       	ldi	r25, 0x00	; 0
     4a8:	a0 e0       	ldi	r26, 0x00	; 0
     4aa:	b0 e0       	ldi	r27, 0x00	; 0
     4ac:	01 97       	sbiw	r24, 0x01	; 1
     4ae:	a1 09       	sbc	r26, r1
     4b0:	b1 09       	sbc	r27, r1
     4b2:	48 0f       	add	r20, r24
     4b4:	59 1f       	adc	r21, r25
     4b6:	6a 1f       	adc	r22, r26
     4b8:	7b 1f       	adc	r23, r27
     4ba:	4e 3f       	cpi	r20, 0xFE	; 254
     4bc:	5f 4f       	sbci	r21, 0xFF	; 255
     4be:	6f 4f       	sbci	r22, 0xFF	; 255
     4c0:	7f 4f       	sbci	r23, 0xFF	; 255
     4c2:	08 f0       	brcs	.+2      	; 0x4c6 <connect+0xc2>
     4c4:	71 c0       	rjmp	.+226    	; 0x5a8 <connect+0x1a4>
   }
   //
	
	if(port == 0) return SOCKERR_PORTZERO;
     4c6:	e1 14       	cp	r14, r1
     4c8:	f1 04       	cpc	r15, r1
     4ca:	09 f4       	brne	.+2      	; 0x4ce <connect+0xca>
     4cc:	6f c0       	rjmp	.+222    	; 0x5ac <connect+0x1a8>
	setSn_DIPR(sn,addr);
     4ce:	b6 01       	movw	r22, r12
     4d0:	64 5f       	subi	r22, 0xF4	; 244
     4d2:	7f 4f       	sbci	r23, 0xFF	; 255
     4d4:	07 2e       	mov	r0, r23
     4d6:	00 0c       	add	r0, r0
     4d8:	88 0b       	sbc	r24, r24
     4da:	99 0b       	sbc	r25, r25
     4dc:	24 e0       	ldi	r18, 0x04	; 4
     4de:	30 e0       	ldi	r19, 0x00	; 0
     4e0:	ae 01       	movw	r20, r28
     4e2:	0e 94 1d 06 	call	0xc3a	; 0xc3a <WIZCHIP_WRITE_BUF>
	setSn_DPORT(sn,port);
     4e6:	b6 01       	movw	r22, r12
     4e8:	60 5f       	subi	r22, 0xF0	; 240
     4ea:	7f 4f       	sbci	r23, 0xFF	; 255
     4ec:	07 2e       	mov	r0, r23
     4ee:	00 0c       	add	r0, r0
     4f0:	88 0b       	sbc	r24, r24
     4f2:	99 0b       	sbc	r25, r25
     4f4:	4f 2d       	mov	r20, r15
     4f6:	0e 94 c7 05 	call	0xb8e	; 0xb8e <WIZCHIP_WRITE>
     4fa:	b6 01       	movw	r22, r12
     4fc:	6f 5e       	subi	r22, 0xEF	; 239
     4fe:	7f 4f       	sbci	r23, 0xFF	; 255
     500:	07 2e       	mov	r0, r23
     502:	00 0c       	add	r0, r0
     504:	88 0b       	sbc	r24, r24
     506:	99 0b       	sbc	r25, r25
     508:	4e 2d       	mov	r20, r14
     50a:	0e 94 c7 05 	call	0xb8e	; 0xb8e <WIZCHIP_WRITE>
	setSn_CR(sn,Sn_CR_CONNECT);
     50e:	26 01       	movw	r4, r12
     510:	8f ef       	ldi	r24, 0xFF	; 255
     512:	48 1a       	sub	r4, r24
     514:	58 0a       	sbc	r5, r24
     516:	05 2c       	mov	r0, r5
     518:	00 0c       	add	r0, r0
     51a:	66 08       	sbc	r6, r6
     51c:	77 08       	sbc	r7, r7
     51e:	44 e0       	ldi	r20, 0x04	; 4
     520:	c3 01       	movw	r24, r6
     522:	b2 01       	movw	r22, r4
     524:	0e 94 c7 05 	call	0xb8e	; 0xb8e <WIZCHIP_WRITE>
   while(getSn_CR(sn));
     528:	c3 01       	movw	r24, r6
     52a:	b2 01       	movw	r22, r4
     52c:	0e 94 f3 05 	call	0xbe6	; 0xbe6 <WIZCHIP_READ>
     530:	81 11       	cpse	r24, r1
     532:	fa cf       	rjmp	.-12     	; 0x528 <connect+0x124>
   if(sock_io_mode & (1<<sn)) return SOCK_BUSY;
     534:	81 e0       	ldi	r24, 0x01	; 1
     536:	90 e0       	ldi	r25, 0x00	; 0
     538:	02 c0       	rjmp	.+4      	; 0x53e <connect+0x13a>
     53a:	88 0f       	add	r24, r24
     53c:	99 1f       	adc	r25, r25
     53e:	1a 95       	dec	r17
     540:	e2 f7       	brpl	.-8      	; 0x53a <connect+0x136>
     542:	20 91 aa 03 	lds	r18, 0x03AA	; 0x8003aa <sock_io_mode>
     546:	30 91 ab 03 	lds	r19, 0x03AB	; 0x8003ab <sock_io_mode+0x1>
     54a:	82 23       	and	r24, r18
     54c:	93 23       	and	r25, r19
     54e:	89 2b       	or	r24, r25
     550:	79 f5       	brne	.+94     	; 0x5b0 <connect+0x1ac>
   while(getSn_SR(sn) != SOCK_ESTABLISHED)
   {
		if (getSn_IR(sn) & Sn_IR_TIMEOUT)
     552:	82 e0       	ldi	r24, 0x02	; 2
     554:	c8 0e       	add	r12, r24
     556:	d1 1c       	adc	r13, r1
     558:	0d 2c       	mov	r0, r13
     55a:	00 0c       	add	r0, r0
     55c:	ee 08       	sbc	r14, r14
     55e:	ff 08       	sbc	r15, r15
     560:	15 c0       	rjmp	.+42     	; 0x58c <connect+0x188>
     562:	c7 01       	movw	r24, r14
     564:	b6 01       	movw	r22, r12
     566:	0e 94 f3 05 	call	0xbe6	; 0xbe6 <WIZCHIP_READ>
     56a:	83 ff       	sbrs	r24, 3
     56c:	09 c0       	rjmp	.+18     	; 0x580 <connect+0x17c>
		{
			setSn_IR(sn, Sn_IR_TIMEOUT);
     56e:	48 e0       	ldi	r20, 0x08	; 8
     570:	6c 2d       	mov	r22, r12
     572:	7d 2d       	mov	r23, r13
     574:	8e 2d       	mov	r24, r14
     576:	9f 2d       	mov	r25, r15
     578:	0e 94 c7 05 	call	0xb8e	; 0xb8e <WIZCHIP_WRITE>
            return SOCKERR_TIMEOUT;
     57c:	83 ef       	ldi	r24, 0xF3	; 243
     57e:	1b c0       	rjmp	.+54     	; 0x5b6 <connect+0x1b2>
		}

		if (getSn_SR(sn) == SOCK_CLOSED)
     580:	c5 01       	movw	r24, r10
     582:	b4 01       	movw	r22, r8
     584:	0e 94 f3 05 	call	0xbe6	; 0xbe6 <WIZCHIP_READ>
     588:	88 23       	and	r24, r24
     58a:	a1 f0       	breq	.+40     	; 0x5b4 <connect+0x1b0>
	setSn_DIPR(sn,addr);
	setSn_DPORT(sn,port);
	setSn_CR(sn,Sn_CR_CONNECT);
   while(getSn_CR(sn));
   if(sock_io_mode & (1<<sn)) return SOCK_BUSY;
   while(getSn_SR(sn) != SOCK_ESTABLISHED)
     58c:	c5 01       	movw	r24, r10
     58e:	b4 01       	movw	r22, r8
     590:	0e 94 f3 05 	call	0xbe6	; 0xbe6 <WIZCHIP_READ>
     594:	87 31       	cpi	r24, 0x17	; 23
     596:	29 f7       	brne	.-54     	; 0x562 <connect+0x15e>
		{
			return SOCKERR_SOCKCLOSED;
		}
	}
   
   return SOCK_OK;
     598:	81 e0       	ldi	r24, 0x01	; 1
     59a:	0d c0       	rjmp	.+26     	; 0x5b6 <connect+0x1b2>
}


int8_t connect(uint8_t sn, uint8_t * addr, uint16_t port)
{
   CHECK_SOCKNUM();
     59c:	8f ef       	ldi	r24, 0xFF	; 255
     59e:	0b c0       	rjmp	.+22     	; 0x5b6 <connect+0x1b2>
   CHECK_SOCKMODE(Sn_MR_TCP);
     5a0:	8b ef       	ldi	r24, 0xFB	; 251
     5a2:	09 c0       	rjmp	.+18     	; 0x5b6 <connect+0x1b2>
   CHECK_SOCKINIT();
     5a4:	8d ef       	ldi	r24, 0xFD	; 253
     5a6:	07 c0       	rjmp	.+14     	; 0x5b6 <connect+0x1b2>
      uint32_t taddr;
      taddr = ((uint32_t)addr[0] & 0x000000FF);
      taddr = (taddr << 8) + ((uint32_t)addr[1] & 0x000000FF);
      taddr = (taddr << 8) + ((uint32_t)addr[2] & 0x000000FF);
      taddr = (taddr << 8) + ((uint32_t)addr[3] & 0x000000FF);
      if( taddr == 0xFFFFFFFF || taddr == 0) return SOCKERR_IPINVALID;
     5a8:	84 ef       	ldi	r24, 0xF4	; 244
     5aa:	05 c0       	rjmp	.+10     	; 0x5b6 <connect+0x1b2>
   }
   //
	
	if(port == 0) return SOCKERR_PORTZERO;
     5ac:	85 ef       	ldi	r24, 0xF5	; 245
     5ae:	03 c0       	rjmp	.+6      	; 0x5b6 <connect+0x1b2>
	setSn_DIPR(sn,addr);
	setSn_DPORT(sn,port);
	setSn_CR(sn,Sn_CR_CONNECT);
   while(getSn_CR(sn));
   if(sock_io_mode & (1<<sn)) return SOCK_BUSY;
     5b0:	80 e0       	ldi	r24, 0x00	; 0
     5b2:	01 c0       	rjmp	.+2      	; 0x5b6 <connect+0x1b2>
            return SOCKERR_TIMEOUT;
		}

		if (getSn_SR(sn) == SOCK_CLOSED)
		{
			return SOCKERR_SOCKCLOSED;
     5b4:	8c ef       	ldi	r24, 0xFC	; 252
		}
	}
   
   return SOCK_OK;
}
     5b6:	df 91       	pop	r29
     5b8:	cf 91       	pop	r28
     5ba:	1f 91       	pop	r17
     5bc:	ff 90       	pop	r15
     5be:	ef 90       	pop	r14
     5c0:	df 90       	pop	r13
     5c2:	cf 90       	pop	r12
     5c4:	bf 90       	pop	r11
     5c6:	af 90       	pop	r10
     5c8:	9f 90       	pop	r9
     5ca:	8f 90       	pop	r8
     5cc:	7f 90       	pop	r7
     5ce:	6f 90       	pop	r6
     5d0:	5f 90       	pop	r5
     5d2:	4f 90       	pop	r4
     5d4:	08 95       	ret

000005d6 <disconnect>:

int8_t disconnect(uint8_t sn)
{
     5d6:	8f 92       	push	r8
     5d8:	9f 92       	push	r9
     5da:	af 92       	push	r10
     5dc:	bf 92       	push	r11
     5de:	cf 92       	push	r12
     5e0:	df 92       	push	r13
     5e2:	ef 92       	push	r14
     5e4:	ff 92       	push	r15
     5e6:	1f 93       	push	r17
     5e8:	cf 93       	push	r28
     5ea:	df 93       	push	r29
   CHECK_SOCKNUM();
     5ec:	85 30       	cpi	r24, 0x05	; 5
     5ee:	08 f0       	brcs	.+2      	; 0x5f2 <disconnect+0x1c>
     5f0:	65 c0       	rjmp	.+202    	; 0x6bc <disconnect+0xe6>
     5f2:	18 2f       	mov	r17, r24
   CHECK_SOCKMODE(Sn_MR_TCP);
     5f4:	c8 2f       	mov	r28, r24
     5f6:	d0 e0       	ldi	r29, 0x00	; 0
     5f8:	24 96       	adiw	r28, 0x04	; 4
     5fa:	dc 2f       	mov	r29, r28
     5fc:	cc 27       	eor	r28, r28
     5fe:	be 01       	movw	r22, r28
     600:	0d 2e       	mov	r0, r29
     602:	00 0c       	add	r0, r0
     604:	88 0b       	sbc	r24, r24
     606:	99 0b       	sbc	r25, r25
     608:	0e 94 f3 05 	call	0xbe6	; 0xbe6 <WIZCHIP_READ>
     60c:	8f 70       	andi	r24, 0x0F	; 15
     60e:	81 30       	cpi	r24, 0x01	; 1
     610:	09 f0       	breq	.+2      	; 0x614 <disconnect+0x3e>
     612:	56 c0       	rjmp	.+172    	; 0x6c0 <disconnect+0xea>
	setSn_CR(sn,Sn_CR_DISCON);
     614:	6e 01       	movw	r12, r28
     616:	8f ef       	ldi	r24, 0xFF	; 255
     618:	c8 1a       	sub	r12, r24
     61a:	d8 0a       	sbc	r13, r24
     61c:	0d 2c       	mov	r0, r13
     61e:	00 0c       	add	r0, r0
     620:	ee 08       	sbc	r14, r14
     622:	ff 08       	sbc	r15, r15
     624:	48 e0       	ldi	r20, 0x08	; 8
     626:	c7 01       	movw	r24, r14
     628:	b6 01       	movw	r22, r12
     62a:	0e 94 c7 05 	call	0xb8e	; 0xb8e <WIZCHIP_WRITE>
	/* wait to process the command... */
	while(getSn_CR(sn));
     62e:	c7 01       	movw	r24, r14
     630:	b6 01       	movw	r22, r12
     632:	0e 94 f3 05 	call	0xbe6	; 0xbe6 <WIZCHIP_READ>
     636:	81 11       	cpse	r24, r1
     638:	fa cf       	rjmp	.-12     	; 0x62e <disconnect+0x58>
	sock_is_sending &= ~(1<<sn);
     63a:	81 e0       	ldi	r24, 0x01	; 1
     63c:	90 e0       	ldi	r25, 0x00	; 0
     63e:	01 2e       	mov	r0, r17
     640:	02 c0       	rjmp	.+4      	; 0x646 <disconnect+0x70>
     642:	88 0f       	add	r24, r24
     644:	99 1f       	adc	r25, r25
     646:	0a 94       	dec	r0
     648:	e2 f7       	brpl	.-8      	; 0x642 <disconnect+0x6c>
     64a:	9c 01       	movw	r18, r24
     64c:	20 95       	com	r18
     64e:	30 95       	com	r19
     650:	40 91 a8 03 	lds	r20, 0x03A8	; 0x8003a8 <sock_is_sending>
     654:	50 91 a9 03 	lds	r21, 0x03A9	; 0x8003a9 <sock_is_sending+0x1>
     658:	24 23       	and	r18, r20
     65a:	35 23       	and	r19, r21
     65c:	30 93 a9 03 	sts	0x03A9, r19	; 0x8003a9 <sock_is_sending+0x1>
     660:	20 93 a8 03 	sts	0x03A8, r18	; 0x8003a8 <sock_is_sending>
   if(sock_io_mode & (1<<sn)) return SOCK_BUSY;
     664:	20 91 aa 03 	lds	r18, 0x03AA	; 0x8003aa <sock_io_mode>
     668:	30 91 ab 03 	lds	r19, 0x03AB	; 0x8003ab <sock_io_mode+0x1>
     66c:	82 23       	and	r24, r18
     66e:	93 23       	and	r25, r19
     670:	89 2b       	or	r24, r25
     672:	41 f5       	brne	.+80     	; 0x6c4 <disconnect+0xee>
	while(getSn_SR(sn) != SOCK_CLOSED)
     674:	4e 01       	movw	r8, r28
     676:	83 e0       	ldi	r24, 0x03	; 3
     678:	88 0e       	add	r8, r24
     67a:	91 1c       	adc	r9, r1
     67c:	09 2c       	mov	r0, r9
     67e:	00 0c       	add	r0, r0
     680:	aa 08       	sbc	r10, r10
     682:	bb 08       	sbc	r11, r11
	{
	   if(getSn_IR(sn) & Sn_IR_TIMEOUT)
     684:	6e 01       	movw	r12, r28
     686:	82 e0       	ldi	r24, 0x02	; 2
     688:	c8 0e       	add	r12, r24
     68a:	d1 1c       	adc	r13, r1
     68c:	0d 2c       	mov	r0, r13
     68e:	00 0c       	add	r0, r0
     690:	ee 08       	sbc	r14, r14
     692:	ff 08       	sbc	r15, r15
     694:	0b c0       	rjmp	.+22     	; 0x6ac <disconnect+0xd6>
     696:	c7 01       	movw	r24, r14
     698:	b6 01       	movw	r22, r12
     69a:	0e 94 f3 05 	call	0xbe6	; 0xbe6 <WIZCHIP_READ>
     69e:	83 ff       	sbrs	r24, 3
     6a0:	05 c0       	rjmp	.+10     	; 0x6ac <disconnect+0xd6>
	   {
	      close(sn);
     6a2:	81 2f       	mov	r24, r17
     6a4:	0e 94 8d 00 	call	0x11a	; 0x11a <close>
	      return SOCKERR_TIMEOUT;
     6a8:	83 ef       	ldi	r24, 0xF3	; 243
     6aa:	0d c0       	rjmp	.+26     	; 0x6c6 <disconnect+0xf0>
	setSn_CR(sn,Sn_CR_DISCON);
	/* wait to process the command... */
	while(getSn_CR(sn));
	sock_is_sending &= ~(1<<sn);
   if(sock_io_mode & (1<<sn)) return SOCK_BUSY;
	while(getSn_SR(sn) != SOCK_CLOSED)
     6ac:	c5 01       	movw	r24, r10
     6ae:	b4 01       	movw	r22, r8
     6b0:	0e 94 f3 05 	call	0xbe6	; 0xbe6 <WIZCHIP_READ>
     6b4:	81 11       	cpse	r24, r1
     6b6:	ef cf       	rjmp	.-34     	; 0x696 <disconnect+0xc0>
	   {
	      close(sn);
	      return SOCKERR_TIMEOUT;
	   }
	}
	return SOCK_OK;
     6b8:	81 e0       	ldi	r24, 0x01	; 1
     6ba:	05 c0       	rjmp	.+10     	; 0x6c6 <disconnect+0xf0>
   return SOCK_OK;
}

int8_t disconnect(uint8_t sn)
{
   CHECK_SOCKNUM();
     6bc:	8f ef       	ldi	r24, 0xFF	; 255
     6be:	03 c0       	rjmp	.+6      	; 0x6c6 <disconnect+0xf0>
   CHECK_SOCKMODE(Sn_MR_TCP);
     6c0:	8b ef       	ldi	r24, 0xFB	; 251
     6c2:	01 c0       	rjmp	.+2      	; 0x6c6 <disconnect+0xf0>
	setSn_CR(sn,Sn_CR_DISCON);
	/* wait to process the command... */
	while(getSn_CR(sn));
	sock_is_sending &= ~(1<<sn);
   if(sock_io_mode & (1<<sn)) return SOCK_BUSY;
     6c4:	80 e0       	ldi	r24, 0x00	; 0
	      close(sn);
	      return SOCKERR_TIMEOUT;
	   }
	}
	return SOCK_OK;
}
     6c6:	df 91       	pop	r29
     6c8:	cf 91       	pop	r28
     6ca:	1f 91       	pop	r17
     6cc:	ff 90       	pop	r15
     6ce:	ef 90       	pop	r14
     6d0:	df 90       	pop	r13
     6d2:	cf 90       	pop	r12
     6d4:	bf 90       	pop	r11
     6d6:	af 90       	pop	r10
     6d8:	9f 90       	pop	r9
     6da:	8f 90       	pop	r8
     6dc:	08 95       	ret

000006de <send>:

int32_t send(uint8_t sn, uint8_t * buf, uint16_t len)
{
     6de:	2f 92       	push	r2
     6e0:	3f 92       	push	r3
     6e2:	4f 92       	push	r4
     6e4:	5f 92       	push	r5
     6e6:	6f 92       	push	r6
     6e8:	7f 92       	push	r7
     6ea:	8f 92       	push	r8
     6ec:	9f 92       	push	r9
     6ee:	af 92       	push	r10
     6f0:	bf 92       	push	r11
     6f2:	cf 92       	push	r12
     6f4:	df 92       	push	r13
     6f6:	ef 92       	push	r14
     6f8:	ff 92       	push	r15
     6fa:	1f 93       	push	r17
     6fc:	cf 93       	push	r28
     6fe:	df 93       	push	r29
     700:	00 d0       	rcall	.+0      	; 0x702 <send+0x24>
     702:	00 d0       	rcall	.+0      	; 0x704 <send+0x26>
     704:	00 d0       	rcall	.+0      	; 0x706 <send+0x28>
     706:	cd b7       	in	r28, 0x3d	; 61
     708:	de b7       	in	r29, 0x3e	; 62
   uint8_t tmp=0;
   uint16_t freesize=0;
   
   CHECK_SOCKNUM();
     70a:	85 30       	cpi	r24, 0x05	; 5
     70c:	08 f0       	brcs	.+2      	; 0x710 <send+0x32>
     70e:	e5 c0       	rjmp	.+458    	; 0x8da <send+0x1fc>
     710:	7a 01       	movw	r14, r20
     712:	1b 01       	movw	r2, r22
     714:	18 2f       	mov	r17, r24
   CHECK_SOCKMODE(Sn_MR_TCP);
     716:	28 2f       	mov	r18, r24
     718:	30 e0       	ldi	r19, 0x00	; 0
     71a:	3e 83       	std	Y+6, r19	; 0x06
     71c:	2d 83       	std	Y+5, r18	; 0x05
     71e:	69 01       	movw	r12, r18
     720:	34 e0       	ldi	r19, 0x04	; 4
     722:	c3 0e       	add	r12, r19
     724:	d1 1c       	adc	r13, r1
     726:	dc 2c       	mov	r13, r12
     728:	cc 24       	eor	r12, r12
     72a:	b6 01       	movw	r22, r12
     72c:	0d 2c       	mov	r0, r13
     72e:	00 0c       	add	r0, r0
     730:	88 0b       	sbc	r24, r24
     732:	99 0b       	sbc	r25, r25
     734:	0e 94 f3 05 	call	0xbe6	; 0xbe6 <WIZCHIP_READ>
     738:	8f 70       	andi	r24, 0x0F	; 15
     73a:	81 30       	cpi	r24, 0x01	; 1
     73c:	09 f0       	breq	.+2      	; 0x740 <send+0x62>
     73e:	d1 c0       	rjmp	.+418    	; 0x8e2 <send+0x204>
   CHECK_SOCKDATA();
     740:	e1 14       	cp	r14, r1
     742:	f1 04       	cpc	r15, r1
     744:	09 f4       	brne	.+2      	; 0x748 <send+0x6a>
     746:	d2 c0       	rjmp	.+420    	; 0x8ec <send+0x20e>
   tmp = getSn_SR(sn);
     748:	26 01       	movw	r4, r12
     74a:	43 e0       	ldi	r20, 0x03	; 3
     74c:	44 0e       	add	r4, r20
     74e:	51 1c       	adc	r5, r1
     750:	05 2c       	mov	r0, r5
     752:	00 0c       	add	r0, r0
     754:	66 08       	sbc	r6, r6
     756:	77 08       	sbc	r7, r7
     758:	c3 01       	movw	r24, r6
     75a:	b2 01       	movw	r22, r4
     75c:	0e 94 f3 05 	call	0xbe6	; 0xbe6 <WIZCHIP_READ>
   if(tmp != SOCK_ESTABLISHED && tmp != SOCK_CLOSE_WAIT) return SOCKERR_SOCKSTATUS;
     760:	87 31       	cpi	r24, 0x17	; 23
     762:	19 f0       	breq	.+6      	; 0x76a <send+0x8c>
     764:	8c 31       	cpi	r24, 0x1C	; 28
     766:	09 f0       	breq	.+2      	; 0x76a <send+0x8c>
     768:	c6 c0       	rjmp	.+396    	; 0x8f6 <send+0x218>
   if( sock_is_sending & (1<<sn) )
     76a:	81 e0       	ldi	r24, 0x01	; 1
     76c:	90 e0       	ldi	r25, 0x00	; 0
     76e:	4c 01       	movw	r8, r24
     770:	01 2e       	mov	r0, r17
     772:	02 c0       	rjmp	.+4      	; 0x778 <send+0x9a>
     774:	88 0c       	add	r8, r8
     776:	99 1c       	adc	r9, r9
     778:	0a 94       	dec	r0
     77a:	e2 f7       	brpl	.-8      	; 0x774 <send+0x96>
     77c:	54 01       	movw	r10, r8
     77e:	80 91 a8 03 	lds	r24, 0x03A8	; 0x8003a8 <sock_is_sending>
     782:	90 91 a9 03 	lds	r25, 0x03A9	; 0x8003a9 <sock_is_sending+0x1>
     786:	88 21       	and	r24, r8
     788:	99 21       	and	r25, r9
     78a:	89 2b       	or	r24, r25
     78c:	79 f1       	breq	.+94     	; 0x7ec <send+0x10e>
   {
      tmp = getSn_IR(sn);
     78e:	c6 01       	movw	r24, r12
     790:	02 96       	adiw	r24, 0x02	; 2
     792:	9c 01       	movw	r18, r24
     794:	99 0f       	add	r25, r25
     796:	44 0b       	sbc	r20, r20
     798:	55 0b       	sbc	r21, r21
     79a:	29 83       	std	Y+1, r18	; 0x01
     79c:	3a 83       	std	Y+2, r19	; 0x02
     79e:	4b 83       	std	Y+3, r20	; 0x03
     7a0:	5c 83       	std	Y+4, r21	; 0x04
     7a2:	ca 01       	movw	r24, r20
     7a4:	b9 01       	movw	r22, r18
     7a6:	0e 94 f3 05 	call	0xbe6	; 0xbe6 <WIZCHIP_READ>
      if(tmp & Sn_IR_SENDOK)
     7aa:	84 ff       	sbrs	r24, 4
     7ac:	15 c0       	rjmp	.+42     	; 0x7d8 <send+0xfa>
      {
         setSn_IR(sn, Sn_IR_SENDOK);
     7ae:	40 e1       	ldi	r20, 0x10	; 16
     7b0:	69 81       	ldd	r22, Y+1	; 0x01
     7b2:	7a 81       	ldd	r23, Y+2	; 0x02
     7b4:	8b 81       	ldd	r24, Y+3	; 0x03
     7b6:	9c 81       	ldd	r25, Y+4	; 0x04
     7b8:	0e 94 c7 05 	call	0xb8e	; 0xb8e <WIZCHIP_WRITE>
               setSn_CR(sn,Sn_CR_SEND);
               while(getSn_CR(sn));
               return SOCK_BUSY;
            }
         #endif
         sock_is_sending &= ~(1<<sn);         
     7bc:	20 91 a8 03 	lds	r18, 0x03A8	; 0x8003a8 <sock_is_sending>
     7c0:	30 91 a9 03 	lds	r19, 0x03A9	; 0x8003a9 <sock_is_sending+0x1>
     7c4:	c4 01       	movw	r24, r8
     7c6:	80 95       	com	r24
     7c8:	90 95       	com	r25
     7ca:	82 23       	and	r24, r18
     7cc:	93 23       	and	r25, r19
     7ce:	90 93 a9 03 	sts	0x03A9, r25	; 0x8003a9 <sock_is_sending+0x1>
     7d2:	80 93 a8 03 	sts	0x03A8, r24	; 0x8003a8 <sock_is_sending>
     7d6:	0a c0       	rjmp	.+20     	; 0x7ec <send+0x10e>
      }
      else if(tmp & Sn_IR_TIMEOUT)
     7d8:	83 ff       	sbrs	r24, 3
     7da:	92 c0       	rjmp	.+292    	; 0x900 <__stack+0x1>
      {
         close(sn);
     7dc:	81 2f       	mov	r24, r17
     7de:	0e 94 8d 00 	call	0x11a	; 0x11a <close>
         return SOCKERR_TIMEOUT;
     7e2:	63 ef       	ldi	r22, 0xF3	; 243
     7e4:	7f ef       	ldi	r23, 0xFF	; 255
     7e6:	8f ef       	ldi	r24, 0xFF	; 255
     7e8:	9f ef       	ldi	r25, 0xFF	; 255
     7ea:	91 c0       	rjmp	.+290    	; 0x90e <__stack+0xf>
      }
      else return SOCK_BUSY;
   }
   freesize = getSn_TxMAX(sn);
     7ec:	6b e1       	ldi	r22, 0x1B	; 27
     7ee:	70 e0       	ldi	r23, 0x00	; 0
     7f0:	80 e0       	ldi	r24, 0x00	; 0
     7f2:	90 e0       	ldi	r25, 0x00	; 0
     7f4:	0e 94 f3 05 	call	0xbe6	; 0xbe6 <WIZCHIP_READ>
     7f8:	4d 81       	ldd	r20, Y+5	; 0x05
     7fa:	5e 81       	ldd	r21, Y+6	; 0x06
     7fc:	44 0f       	add	r20, r20
     7fe:	55 1f       	adc	r21, r21
     800:	5a 83       	std	Y+2, r21	; 0x02
     802:	49 83       	std	Y+1, r20	; 0x01
     804:	23 e0       	ldi	r18, 0x03	; 3
     806:	30 e0       	ldi	r19, 0x00	; 0
     808:	09 80       	ldd	r0, Y+1	; 0x01
     80a:	02 c0       	rjmp	.+4      	; 0x810 <send+0x132>
     80c:	22 0f       	add	r18, r18
     80e:	33 1f       	adc	r19, r19
     810:	0a 94       	dec	r0
     812:	e2 f7       	brpl	.-8      	; 0x80c <send+0x12e>
     814:	90 e0       	ldi	r25, 0x00	; 0
     816:	82 23       	and	r24, r18
     818:	93 23       	and	r25, r19
     81a:	09 80       	ldd	r0, Y+1	; 0x01
     81c:	02 c0       	rjmp	.+4      	; 0x822 <send+0x144>
     81e:	95 95       	asr	r25
     820:	87 95       	ror	r24
     822:	0a 94       	dec	r0
     824:	e2 f7       	brpl	.-8      	; 0x81e <send+0x140>
     826:	20 e0       	ldi	r18, 0x00	; 0
     828:	34 e0       	ldi	r19, 0x04	; 4
     82a:	a9 01       	movw	r20, r18
     82c:	02 c0       	rjmp	.+4      	; 0x832 <send+0x154>
     82e:	44 0f       	add	r20, r20
     830:	55 1f       	adc	r21, r21
     832:	8a 95       	dec	r24
     834:	e2 f7       	brpl	.-8      	; 0x82e <send+0x150>
     836:	4e 15       	cp	r20, r14
     838:	5f 05       	cpc	r21, r15
     83a:	08 f4       	brcc	.+2      	; 0x83e <send+0x160>
     83c:	7a 01       	movw	r14, r20
   if (len > freesize) len = freesize; // check size not to exceed MAX size.
   while(1)
   {
      freesize = getSn_TX_FSR(sn);
     83e:	81 2f       	mov	r24, r17
     840:	0e 94 d4 06 	call	0xda8	; 0xda8 <getSn_TX_FSR>
     844:	9a 83       	std	Y+2, r25	; 0x02
     846:	89 83       	std	Y+1, r24	; 0x01
      tmp = getSn_SR(sn);
     848:	c3 01       	movw	r24, r6
     84a:	b2 01       	movw	r22, r4
     84c:	0e 94 f3 05 	call	0xbe6	; 0xbe6 <WIZCHIP_READ>
      if ((tmp != SOCK_ESTABLISHED) && (tmp != SOCK_CLOSE_WAIT))
     850:	87 31       	cpi	r24, 0x17	; 23
     852:	51 f0       	breq	.+20     	; 0x868 <send+0x18a>
     854:	8c 31       	cpi	r24, 0x1C	; 28
     856:	41 f0       	breq	.+16     	; 0x868 <send+0x18a>
      {
         close(sn);
     858:	81 2f       	mov	r24, r17
     85a:	0e 94 8d 00 	call	0x11a	; 0x11a <close>
         return SOCKERR_SOCKSTATUS;
     85e:	69 ef       	ldi	r22, 0xF9	; 249
     860:	7f ef       	ldi	r23, 0xFF	; 255
     862:	8f ef       	ldi	r24, 0xFF	; 255
     864:	9f ef       	ldi	r25, 0xFF	; 255
     866:	53 c0       	rjmp	.+166    	; 0x90e <__stack+0xf>
      }
      if( (sock_io_mode & (1<<sn)) && (len > freesize) ) return SOCK_BUSY;
     868:	80 91 aa 03 	lds	r24, 0x03AA	; 0x8003aa <sock_io_mode>
     86c:	90 91 ab 03 	lds	r25, 0x03AB	; 0x8003ab <sock_io_mode+0x1>
     870:	8a 21       	and	r24, r10
     872:	9b 21       	and	r25, r11
     874:	89 2b       	or	r24, r25
     876:	31 f0       	breq	.+12     	; 0x884 <send+0x1a6>
     878:	89 81       	ldd	r24, Y+1	; 0x01
     87a:	9a 81       	ldd	r25, Y+2	; 0x02
     87c:	8e 15       	cp	r24, r14
     87e:	9f 05       	cpc	r25, r15
     880:	30 f4       	brcc	.+12     	; 0x88e <send+0x1b0>
     882:	42 c0       	rjmp	.+132    	; 0x908 <__stack+0x9>
      if(len <= freesize) break;
     884:	29 81       	ldd	r18, Y+1	; 0x01
     886:	3a 81       	ldd	r19, Y+2	; 0x02
     888:	2e 15       	cp	r18, r14
     88a:	3f 05       	cpc	r19, r15
     88c:	c0 f2       	brcs	.-80     	; 0x83e <send+0x160>
   }
   wiz_send_data(sn, buf, len);
     88e:	a7 01       	movw	r20, r14
     890:	b1 01       	movw	r22, r2
     892:	81 2f       	mov	r24, r17
     894:	0e 94 49 08 	call	0x1092	; 0x1092 <wiz_send_data>

   #if _WIZCHIP_ == 5300
      setSn_TX_WRSR(sn,len);
   #endif
   
   setSn_CR(sn,Sn_CR_SEND);
     898:	26 01       	movw	r4, r12
     89a:	3f ef       	ldi	r19, 0xFF	; 255
     89c:	43 1a       	sub	r4, r19
     89e:	53 0a       	sbc	r5, r19
     8a0:	05 2c       	mov	r0, r5
     8a2:	00 0c       	add	r0, r0
     8a4:	66 08       	sbc	r6, r6
     8a6:	77 08       	sbc	r7, r7
     8a8:	40 e2       	ldi	r20, 0x20	; 32
     8aa:	c3 01       	movw	r24, r6
     8ac:	b2 01       	movw	r22, r4
     8ae:	0e 94 c7 05 	call	0xb8e	; 0xb8e <WIZCHIP_WRITE>
   /* wait to process the command... */
   while(getSn_CR(sn));
     8b2:	c3 01       	movw	r24, r6
     8b4:	b2 01       	movw	r22, r4
     8b6:	0e 94 f3 05 	call	0xbe6	; 0xbe6 <WIZCHIP_READ>
     8ba:	81 11       	cpse	r24, r1
     8bc:	fa cf       	rjmp	.-12     	; 0x8b2 <send+0x1d4>
   sock_is_sending |= (1 << sn);
     8be:	80 91 a8 03 	lds	r24, 0x03A8	; 0x8003a8 <sock_is_sending>
     8c2:	90 91 a9 03 	lds	r25, 0x03A9	; 0x8003a9 <sock_is_sending+0x1>
     8c6:	88 2a       	or	r8, r24
     8c8:	99 2a       	or	r9, r25
     8ca:	90 92 a9 03 	sts	0x03A9, r9	; 0x8003a9 <sock_is_sending+0x1>
     8ce:	80 92 a8 03 	sts	0x03A8, r8	; 0x8003a8 <sock_is_sending>
   //M20150409 : Explicit Type Casting
   //return len;
   return (int32_t)len;
     8d2:	b7 01       	movw	r22, r14
     8d4:	80 e0       	ldi	r24, 0x00	; 0
     8d6:	90 e0       	ldi	r25, 0x00	; 0
     8d8:	1a c0       	rjmp	.+52     	; 0x90e <__stack+0xf>
int32_t send(uint8_t sn, uint8_t * buf, uint16_t len)
{
   uint8_t tmp=0;
   uint16_t freesize=0;
   
   CHECK_SOCKNUM();
     8da:	6f ef       	ldi	r22, 0xFF	; 255
     8dc:	7f ef       	ldi	r23, 0xFF	; 255
     8de:	cb 01       	movw	r24, r22
     8e0:	16 c0       	rjmp	.+44     	; 0x90e <__stack+0xf>
   CHECK_SOCKMODE(Sn_MR_TCP);
     8e2:	6b ef       	ldi	r22, 0xFB	; 251
     8e4:	7f ef       	ldi	r23, 0xFF	; 255
     8e6:	8f ef       	ldi	r24, 0xFF	; 255
     8e8:	9f ef       	ldi	r25, 0xFF	; 255
     8ea:	11 c0       	rjmp	.+34     	; 0x90e <__stack+0xf>
   CHECK_SOCKDATA();
     8ec:	62 ef       	ldi	r22, 0xF2	; 242
     8ee:	7f ef       	ldi	r23, 0xFF	; 255
     8f0:	8f ef       	ldi	r24, 0xFF	; 255
     8f2:	9f ef       	ldi	r25, 0xFF	; 255
     8f4:	0c c0       	rjmp	.+24     	; 0x90e <__stack+0xf>
   tmp = getSn_SR(sn);
   if(tmp != SOCK_ESTABLISHED && tmp != SOCK_CLOSE_WAIT) return SOCKERR_SOCKSTATUS;
     8f6:	69 ef       	ldi	r22, 0xF9	; 249
     8f8:	7f ef       	ldi	r23, 0xFF	; 255
     8fa:	8f ef       	ldi	r24, 0xFF	; 255
     8fc:	9f ef       	ldi	r25, 0xFF	; 255
     8fe:	07 c0       	rjmp	.+14     	; 0x90e <__stack+0xf>
      else if(tmp & Sn_IR_TIMEOUT)
      {
         close(sn);
         return SOCKERR_TIMEOUT;
      }
      else return SOCK_BUSY;
     900:	60 e0       	ldi	r22, 0x00	; 0
     902:	70 e0       	ldi	r23, 0x00	; 0
     904:	cb 01       	movw	r24, r22
     906:	03 c0       	rjmp	.+6      	; 0x90e <__stack+0xf>
      if ((tmp != SOCK_ESTABLISHED) && (tmp != SOCK_CLOSE_WAIT))
      {
         close(sn);
         return SOCKERR_SOCKSTATUS;
      }
      if( (sock_io_mode & (1<<sn)) && (len > freesize) ) return SOCK_BUSY;
     908:	60 e0       	ldi	r22, 0x00	; 0
     90a:	70 e0       	ldi	r23, 0x00	; 0
     90c:	cb 01       	movw	r24, r22
   while(getSn_CR(sn));
   sock_is_sending |= (1 << sn);
   //M20150409 : Explicit Type Casting
   //return len;
   return (int32_t)len;
}
     90e:	26 96       	adiw	r28, 0x06	; 6
     910:	0f b6       	in	r0, 0x3f	; 63
     912:	f8 94       	cli
     914:	de bf       	out	0x3e, r29	; 62
     916:	0f be       	out	0x3f, r0	; 63
     918:	cd bf       	out	0x3d, r28	; 61
     91a:	df 91       	pop	r29
     91c:	cf 91       	pop	r28
     91e:	1f 91       	pop	r17
     920:	ff 90       	pop	r15
     922:	ef 90       	pop	r14
     924:	df 90       	pop	r13
     926:	cf 90       	pop	r12
     928:	bf 90       	pop	r11
     92a:	af 90       	pop	r10
     92c:	9f 90       	pop	r9
     92e:	8f 90       	pop	r8
     930:	7f 90       	pop	r7
     932:	6f 90       	pop	r6
     934:	5f 90       	pop	r5
     936:	4f 90       	pop	r4
     938:	3f 90       	pop	r3
     93a:	2f 90       	pop	r2
     93c:	08 95       	ret

0000093e <recv>:


int32_t recv(uint8_t sn, uint8_t * buf, uint16_t len)
{
     93e:	2f 92       	push	r2
     940:	3f 92       	push	r3
     942:	4f 92       	push	r4
     944:	5f 92       	push	r5
     946:	6f 92       	push	r6
     948:	7f 92       	push	r7
     94a:	8f 92       	push	r8
     94c:	9f 92       	push	r9
     94e:	af 92       	push	r10
     950:	bf 92       	push	r11
     952:	cf 92       	push	r12
     954:	df 92       	push	r13
     956:	ef 92       	push	r14
     958:	ff 92       	push	r15
     95a:	0f 93       	push	r16
     95c:	1f 93       	push	r17
     95e:	cf 93       	push	r28
     960:	df 93       	push	r29
     962:	00 d0       	rcall	.+0      	; 0x964 <recv+0x26>
     964:	00 d0       	rcall	.+0      	; 0x966 <recv+0x28>
     966:	00 d0       	rcall	.+0      	; 0x968 <recv+0x2a>
     968:	cd b7       	in	r28, 0x3d	; 61
     96a:	de b7       	in	r29, 0x3e	; 62
#if   _WIZCHIP_ == 5300
   uint8_t head[2];
   uint16_t mr;
#endif
//
   CHECK_SOCKNUM();
     96c:	85 30       	cpi	r24, 0x05	; 5
     96e:	08 f0       	brcs	.+2      	; 0x972 <recv+0x34>
     970:	d5 c0       	rjmp	.+426    	; 0xb1c <recv+0x1de>
     972:	5a 83       	std	Y+2, r21	; 0x02
     974:	49 83       	std	Y+1, r20	; 0x01
     976:	7c 83       	std	Y+4, r23	; 0x04
     978:	6b 83       	std	Y+3, r22	; 0x03
     97a:	38 2e       	mov	r3, r24
   CHECK_SOCKMODE(Sn_MR_TCP);
     97c:	48 2e       	mov	r4, r24
     97e:	51 2c       	mov	r5, r1
     980:	32 01       	movw	r6, r4
     982:	24 e0       	ldi	r18, 0x04	; 4
     984:	62 0e       	add	r6, r18
     986:	71 1c       	adc	r7, r1
     988:	76 2c       	mov	r7, r6
     98a:	66 24       	eor	r6, r6
     98c:	b3 01       	movw	r22, r6
     98e:	07 2c       	mov	r0, r7
     990:	00 0c       	add	r0, r0
     992:	88 0b       	sbc	r24, r24
     994:	99 0b       	sbc	r25, r25
     996:	0e 94 f3 05 	call	0xbe6	; 0xbe6 <WIZCHIP_READ>
     99a:	8f 70       	andi	r24, 0x0F	; 15
     99c:	81 30       	cpi	r24, 0x01	; 1
     99e:	09 f0       	breq	.+2      	; 0x9a2 <recv+0x64>
     9a0:	c1 c0       	rjmp	.+386    	; 0xb24 <recv+0x1e6>
   CHECK_SOCKDATA();
     9a2:	89 81       	ldd	r24, Y+1	; 0x01
     9a4:	9a 81       	ldd	r25, Y+2	; 0x02
     9a6:	89 2b       	or	r24, r25
     9a8:	09 f4       	brne	.+2      	; 0x9ac <recv+0x6e>
     9aa:	c1 c0       	rjmp	.+386    	; 0xb2e <recv+0x1f0>
   
   recvsize = getSn_RxMAX(sn);
     9ac:	6a e1       	ldi	r22, 0x1A	; 26
     9ae:	70 e0       	ldi	r23, 0x00	; 0
     9b0:	80 e0       	ldi	r24, 0x00	; 0
     9b2:	90 e0       	ldi	r25, 0x00	; 0
     9b4:	0e 94 f3 05 	call	0xbe6	; 0xbe6 <WIZCHIP_READ>
     9b8:	28 2e       	mov	r2, r24
     9ba:	44 0c       	add	r4, r4
     9bc:	55 1c       	adc	r5, r5
     9be:	83 e0       	ldi	r24, 0x03	; 3
     9c0:	90 e0       	ldi	r25, 0x00	; 0
     9c2:	7c 01       	movw	r14, r24
     9c4:	04 2c       	mov	r0, r4
     9c6:	02 c0       	rjmp	.+4      	; 0x9cc <recv+0x8e>
     9c8:	ee 0c       	add	r14, r14
     9ca:	ff 1c       	adc	r15, r15
     9cc:	0a 94       	dec	r0
     9ce:	e2 f7       	brpl	.-8      	; 0x9c8 <recv+0x8a>
            {
               close(sn);
               return SOCKERR_SOCKSTATUS;
            }
         }
         if((sock_io_mode & (1<<sn)) && (recvsize == 0)) return SOCK_BUSY;
     9d0:	01 e0       	ldi	r16, 0x01	; 1
     9d2:	10 e0       	ldi	r17, 0x00	; 0
     9d4:	03 2c       	mov	r0, r3
     9d6:	02 c0       	rjmp	.+4      	; 0x9dc <recv+0x9e>
     9d8:	00 0f       	add	r16, r16
     9da:	11 1f       	adc	r17, r17
     9dc:	0a 94       	dec	r0
     9de:	e2 f7       	brpl	.-8      	; 0x9d8 <recv+0x9a>
#endif
//
      while(1)
      {
         recvsize = getSn_RX_RSR(sn);
         tmp = getSn_SR(sn);
     9e0:	43 01       	movw	r8, r6
     9e2:	93 e0       	ldi	r25, 0x03	; 3
     9e4:	89 0e       	add	r8, r25
     9e6:	91 1c       	adc	r9, r1
     9e8:	09 2c       	mov	r0, r9
     9ea:	00 0c       	add	r0, r0
     9ec:	aa 08       	sbc	r10, r10
     9ee:	bb 08       	sbc	r11, r11
         if (tmp != SOCK_ESTABLISHED)
         {
            if(tmp == SOCK_CLOSE_WAIT)
            {
               if(recvsize != 0) break;
               else if(getSn_TX_FSR(sn) == getSn_TxMAX(sn))
     9f0:	cc 24       	eor	r12, r12
     9f2:	c3 94       	inc	r12
     9f4:	d1 2c       	mov	r13, r1
   {
#endif
//
      while(1)
      {
         recvsize = getSn_RX_RSR(sn);
     9f6:	83 2d       	mov	r24, r3
     9f8:	0e 94 27 07 	call	0xe4e	; 0xe4e <getSn_RX_RSR>
     9fc:	9e 83       	std	Y+6, r25	; 0x06
     9fe:	8d 83       	std	Y+5, r24	; 0x05
         tmp = getSn_SR(sn);
     a00:	c5 01       	movw	r24, r10
     a02:	b4 01       	movw	r22, r8
     a04:	0e 94 f3 05 	call	0xbe6	; 0xbe6 <WIZCHIP_READ>
         if (tmp != SOCK_ESTABLISHED)
     a08:	87 31       	cpi	r24, 0x17	; 23
     a0a:	e1 f1       	breq	.+120    	; 0xa84 <recv+0x146>
         {
            if(tmp == SOCK_CLOSE_WAIT)
     a0c:	8c 31       	cpi	r24, 0x1C	; 28
     a0e:	91 f5       	brne	.+100    	; 0xa74 <recv+0x136>
            {
               if(recvsize != 0) break;
     a10:	2d 81       	ldd	r18, Y+5	; 0x05
     a12:	3e 81       	ldd	r19, Y+6	; 0x06
     a14:	23 2b       	or	r18, r19
     a16:	09 f0       	breq	.+2      	; 0xa1a <recv+0xdc>
     a18:	47 c0       	rjmp	.+142    	; 0xaa8 <recv+0x16a>
               else if(getSn_TX_FSR(sn) == getSn_TxMAX(sn))
     a1a:	83 2d       	mov	r24, r3
     a1c:	0e 94 d4 06 	call	0xda8	; 0xda8 <getSn_TX_FSR>
     a20:	9e 83       	std	Y+6, r25	; 0x06
     a22:	8d 83       	std	Y+5, r24	; 0x05
     a24:	6b e1       	ldi	r22, 0x1B	; 27
     a26:	70 e0       	ldi	r23, 0x00	; 0
     a28:	80 e0       	ldi	r24, 0x00	; 0
     a2a:	90 e0       	ldi	r25, 0x00	; 0
     a2c:	0e 94 f3 05 	call	0xbe6	; 0xbe6 <WIZCHIP_READ>
     a30:	90 e0       	ldi	r25, 0x00	; 0
     a32:	8e 21       	and	r24, r14
     a34:	9f 21       	and	r25, r15
     a36:	04 2c       	mov	r0, r4
     a38:	02 c0       	rjmp	.+4      	; 0xa3e <recv+0x100>
     a3a:	95 95       	asr	r25
     a3c:	87 95       	ror	r24
     a3e:	0a 94       	dec	r0
     a40:	e2 f7       	brpl	.-8      	; 0xa3a <recv+0xfc>
     a42:	96 01       	movw	r18, r12
     a44:	02 c0       	rjmp	.+4      	; 0xa4a <recv+0x10c>
     a46:	22 0f       	add	r18, r18
     a48:	33 1f       	adc	r19, r19
     a4a:	8a 95       	dec	r24
     a4c:	e2 f7       	brpl	.-8      	; 0xa46 <recv+0x108>
     a4e:	c9 01       	movw	r24, r18
     a50:	98 2f       	mov	r25, r24
     a52:	88 27       	eor	r24, r24
     a54:	99 0f       	add	r25, r25
     a56:	99 0f       	add	r25, r25
     a58:	2d 81       	ldd	r18, Y+5	; 0x05
     a5a:	3e 81       	ldd	r19, Y+6	; 0x06
     a5c:	28 17       	cp	r18, r24
     a5e:	39 07       	cpc	r19, r25
     a60:	09 f0       	breq	.+2      	; 0xa64 <recv+0x126>
     a62:	72 c0       	rjmp	.+228    	; 0xb48 <recv+0x20a>
               {
                  close(sn);
     a64:	83 2d       	mov	r24, r3
     a66:	0e 94 8d 00 	call	0x11a	; 0x11a <close>
                  return SOCKERR_SOCKSTATUS;
     a6a:	69 ef       	ldi	r22, 0xF9	; 249
     a6c:	7f ef       	ldi	r23, 0xFF	; 255
     a6e:	8f ef       	ldi	r24, 0xFF	; 255
     a70:	9f ef       	ldi	r25, 0xFF	; 255
     a72:	74 c0       	rjmp	.+232    	; 0xb5c <recv+0x21e>
               }
            }
            else
            {
               close(sn);
     a74:	83 2d       	mov	r24, r3
     a76:	0e 94 8d 00 	call	0x11a	; 0x11a <close>
               return SOCKERR_SOCKSTATUS;
     a7a:	69 ef       	ldi	r22, 0xF9	; 249
     a7c:	7f ef       	ldi	r23, 0xFF	; 255
     a7e:	8f ef       	ldi	r24, 0xFF	; 255
     a80:	9f ef       	ldi	r25, 0xFF	; 255
     a82:	6c c0       	rjmp	.+216    	; 0xb5c <recv+0x21e>
            }
         }
         if((sock_io_mode & (1<<sn)) && (recvsize == 0)) return SOCK_BUSY;
     a84:	80 91 aa 03 	lds	r24, 0x03AA	; 0x8003aa <sock_io_mode>
     a88:	90 91 ab 03 	lds	r25, 0x03AB	; 0x8003ab <sock_io_mode+0x1>
     a8c:	80 23       	and	r24, r16
     a8e:	91 23       	and	r25, r17
     a90:	89 2b       	or	r24, r25
     a92:	29 f0       	breq	.+10     	; 0xa9e <recv+0x160>
     a94:	8d 81       	ldd	r24, Y+5	; 0x05
     a96:	9e 81       	ldd	r25, Y+6	; 0x06
     a98:	89 2b       	or	r24, r25
     a9a:	31 f4       	brne	.+12     	; 0xaa8 <recv+0x16a>
     a9c:	4d c0       	rjmp	.+154    	; 0xb38 <recv+0x1fa>
         if(recvsize != 0) break;
     a9e:	2d 81       	ldd	r18, Y+5	; 0x05
     aa0:	3e 81       	ldd	r19, Y+6	; 0x06
     aa2:	23 2b       	or	r18, r19
     aa4:	09 f4       	brne	.+2      	; 0xaa8 <recv+0x16a>
     aa6:	a7 cf       	rjmp	.-178    	; 0x9f6 <recv+0xb8>
//
   CHECK_SOCKNUM();
   CHECK_SOCKMODE(Sn_MR_TCP);
   CHECK_SOCKDATA();
   
   recvsize = getSn_RxMAX(sn);
     aa8:	82 2d       	mov	r24, r2
     aaa:	90 e0       	ldi	r25, 0x00	; 0
     aac:	e8 22       	and	r14, r24
     aae:	f9 22       	and	r15, r25
     ab0:	02 c0       	rjmp	.+4      	; 0xab6 <recv+0x178>
     ab2:	f5 94       	asr	r15
     ab4:	e7 94       	ror	r14
     ab6:	4a 94       	dec	r4
     ab8:	e2 f7       	brpl	.-8      	; 0xab2 <recv+0x174>
     aba:	80 e0       	ldi	r24, 0x00	; 0
     abc:	94 e0       	ldi	r25, 0x04	; 4
     abe:	02 c0       	rjmp	.+4      	; 0xac4 <recv+0x186>
     ac0:	88 0f       	add	r24, r24
     ac2:	99 1f       	adc	r25, r25
     ac4:	ea 94       	dec	r14
     ac6:	e2 f7       	brpl	.-8      	; 0xac0 <recv+0x182>
     ac8:	29 81       	ldd	r18, Y+1	; 0x01
     aca:	3a 81       	ldd	r19, Y+2	; 0x02
     acc:	82 17       	cp	r24, r18
     ace:	93 07       	cpc	r25, r19
     ad0:	08 f4       	brcc	.+2      	; 0xad4 <recv+0x196>
     ad2:	9c 01       	movw	r18, r24
     ad4:	89 01       	movw	r16, r18
     ad6:	8d 81       	ldd	r24, Y+5	; 0x05
     ad8:	9e 81       	ldd	r25, Y+6	; 0x06
     ada:	82 17       	cp	r24, r18
     adc:	93 07       	cpc	r25, r19
     ade:	08 f4       	brcc	.+2      	; 0xae2 <recv+0x1a4>
     ae0:	8c 01       	movw	r16, r24
   else sock_pack_info[sn] = PACK_COMPLETED;
   if(getSn_MR(sn) & Sn_MR_ALIGN) sock_remained_size[sn] = 0;
   //len = recvsize;
#else   
   if(recvsize < len) len = recvsize;   
   wiz_recv_data(sn, buf, len);
     ae2:	a8 01       	movw	r20, r16
     ae4:	6b 81       	ldd	r22, Y+3	; 0x03
     ae6:	7c 81       	ldd	r23, Y+4	; 0x04
     ae8:	83 2d       	mov	r24, r3
     aea:	0e 94 58 09 	call	0x12b0	; 0x12b0 <wiz_recv_data>
   setSn_CR(sn,Sn_CR_RECV);
     aee:	63 01       	movw	r12, r6
     af0:	9f ef       	ldi	r25, 0xFF	; 255
     af2:	c9 1a       	sub	r12, r25
     af4:	d9 0a       	sbc	r13, r25
     af6:	0d 2c       	mov	r0, r13
     af8:	00 0c       	add	r0, r0
     afa:	ee 08       	sbc	r14, r14
     afc:	ff 08       	sbc	r15, r15
     afe:	40 e4       	ldi	r20, 0x40	; 64
     b00:	c7 01       	movw	r24, r14
     b02:	b6 01       	movw	r22, r12
     b04:	0e 94 c7 05 	call	0xb8e	; 0xb8e <WIZCHIP_WRITE>
   while(getSn_CR(sn));
     b08:	c7 01       	movw	r24, r14
     b0a:	b6 01       	movw	r22, r12
     b0c:	0e 94 f3 05 	call	0xbe6	; 0xbe6 <WIZCHIP_READ>
     b10:	81 11       	cpse	r24, r1
     b12:	fa cf       	rjmp	.-12     	; 0xb08 <recv+0x1ca>
#endif
     
   //M20150409 : Explicit Type Casting
   //return len;
   return (int32_t)len;
     b14:	b8 01       	movw	r22, r16
     b16:	80 e0       	ldi	r24, 0x00	; 0
     b18:	90 e0       	ldi	r25, 0x00	; 0
     b1a:	20 c0       	rjmp	.+64     	; 0xb5c <recv+0x21e>
#if   _WIZCHIP_ == 5300
   uint8_t head[2];
   uint16_t mr;
#endif
//
   CHECK_SOCKNUM();
     b1c:	6f ef       	ldi	r22, 0xFF	; 255
     b1e:	7f ef       	ldi	r23, 0xFF	; 255
     b20:	cb 01       	movw	r24, r22
     b22:	1c c0       	rjmp	.+56     	; 0xb5c <recv+0x21e>
   CHECK_SOCKMODE(Sn_MR_TCP);
     b24:	6b ef       	ldi	r22, 0xFB	; 251
     b26:	7f ef       	ldi	r23, 0xFF	; 255
     b28:	8f ef       	ldi	r24, 0xFF	; 255
     b2a:	9f ef       	ldi	r25, 0xFF	; 255
     b2c:	17 c0       	rjmp	.+46     	; 0xb5c <recv+0x21e>
   CHECK_SOCKDATA();
     b2e:	62 ef       	ldi	r22, 0xF2	; 242
     b30:	7f ef       	ldi	r23, 0xFF	; 255
     b32:	8f ef       	ldi	r24, 0xFF	; 255
     b34:	9f ef       	ldi	r25, 0xFF	; 255
     b36:	12 c0       	rjmp	.+36     	; 0xb5c <recv+0x21e>
            {
               close(sn);
               return SOCKERR_SOCKSTATUS;
            }
         }
         if((sock_io_mode & (1<<sn)) && (recvsize == 0)) return SOCK_BUSY;
     b38:	60 e0       	ldi	r22, 0x00	; 0
     b3a:	70 e0       	ldi	r23, 0x00	; 0
     b3c:	cb 01       	movw	r24, r22
     b3e:	0e c0       	rjmp	.+28     	; 0xb5c <recv+0x21e>
     b40:	60 e0       	ldi	r22, 0x00	; 0
     b42:	70 e0       	ldi	r23, 0x00	; 0
     b44:	cb 01       	movw	r24, r22
     b46:	0a c0       	rjmp	.+20     	; 0xb5c <recv+0x21e>
     b48:	80 91 aa 03 	lds	r24, 0x03AA	; 0x8003aa <sock_io_mode>
     b4c:	90 91 ab 03 	lds	r25, 0x03AB	; 0x8003ab <sock_io_mode+0x1>
     b50:	80 23       	and	r24, r16
     b52:	91 23       	and	r25, r17
     b54:	89 2b       	or	r24, r25
     b56:	09 f4       	brne	.+2      	; 0xb5a <recv+0x21c>
     b58:	4e cf       	rjmp	.-356    	; 0x9f6 <recv+0xb8>
     b5a:	f2 cf       	rjmp	.-28     	; 0xb40 <recv+0x202>
#endif
     
   //M20150409 : Explicit Type Casting
   //return len;
   return (int32_t)len;
}
     b5c:	26 96       	adiw	r28, 0x06	; 6
     b5e:	0f b6       	in	r0, 0x3f	; 63
     b60:	f8 94       	cli
     b62:	de bf       	out	0x3e, r29	; 62
     b64:	0f be       	out	0x3f, r0	; 63
     b66:	cd bf       	out	0x3d, r28	; 61
     b68:	df 91       	pop	r29
     b6a:	cf 91       	pop	r28
     b6c:	1f 91       	pop	r17
     b6e:	0f 91       	pop	r16
     b70:	ff 90       	pop	r15
     b72:	ef 90       	pop	r14
     b74:	df 90       	pop	r13
     b76:	cf 90       	pop	r12
     b78:	bf 90       	pop	r11
     b7a:	af 90       	pop	r10
     b7c:	9f 90       	pop	r9
     b7e:	8f 90       	pop	r8
     b80:	7f 90       	pop	r7
     b82:	6f 90       	pop	r6
     b84:	5f 90       	pop	r5
     b86:	4f 90       	pop	r4
     b88:	3f 90       	pop	r3
     b8a:	2f 90       	pop	r2
     b8c:	08 95       	ret

00000b8e <WIZCHIP_WRITE>:
#if   (_WIZCHIP_ == 5100)
/**
@brief  This function writes the data into W5100 registers.
*/
void     WIZCHIP_WRITE(uint32_t AddrSel, uint8_t wb )
{
     b8e:	ff 92       	push	r15
     b90:	0f 93       	push	r16
     b92:	1f 93       	push	r17
     b94:	cf 93       	push	r28
     b96:	df 93       	push	r29
     b98:	06 2f       	mov	r16, r22
     b9a:	f7 2e       	mov	r15, r23
     b9c:	14 2f       	mov	r17, r20
   WIZCHIP_CRITICAL_ENTER();
     b9e:	c2 e0       	ldi	r28, 0x02	; 2
     ba0:	d1 e0       	ldi	r29, 0x01	; 1
     ba2:	e8 85       	ldd	r30, Y+8	; 0x08
     ba4:	f9 85       	ldd	r31, Y+9	; 0x09
     ba6:	09 95       	icall
   WIZCHIP.CS._select();
     ba8:	ec 85       	ldd	r30, Y+12	; 0x0c
     baa:	fd 85       	ldd	r31, Y+13	; 0x0d
     bac:	09 95       	icall

#if( (_WIZCHIP_IO_MODE_ & _WIZCHIP_IO_MODE_SPI_))
   WIZCHIP.IF.SPI._write_byte(0xF0);
     bae:	ea 89       	ldd	r30, Y+18	; 0x12
     bb0:	fb 89       	ldd	r31, Y+19	; 0x13
     bb2:	80 ef       	ldi	r24, 0xF0	; 240
     bb4:	09 95       	icall
   WIZCHIP.IF.SPI._write_byte((AddrSel & 0xFF00) >>  8);
     bb6:	ea 89       	ldd	r30, Y+18	; 0x12
     bb8:	fb 89       	ldd	r31, Y+19	; 0x13
     bba:	8f 2d       	mov	r24, r15
     bbc:	09 95       	icall
   WIZCHIP.IF.SPI._write_byte((AddrSel & 0x00FF) >>  0);
     bbe:	ea 89       	ldd	r30, Y+18	; 0x12
     bc0:	fb 89       	ldd	r31, Y+19	; 0x13
     bc2:	80 2f       	mov	r24, r16
     bc4:	09 95       	icall
   WIZCHIP.IF.SPI._write_byte(wb);    // Data write (write 1byte data)
     bc6:	ea 89       	ldd	r30, Y+18	; 0x12
     bc8:	fb 89       	ldd	r31, Y+19	; 0x13
     bca:	81 2f       	mov	r24, r17
     bcc:	09 95       	icall
   WIZCHIP.IF.BUS._write_data(IDM_DR,wb);
#else
   #error "Unknown _WIZCHIP_IO_MODE_ in W5100. !!!"
#endif

   WIZCHIP.CS._deselect();
     bce:	ee 85       	ldd	r30, Y+14	; 0x0e
     bd0:	ff 85       	ldd	r31, Y+15	; 0x0f
     bd2:	09 95       	icall
   WIZCHIP_CRITICAL_EXIT();
     bd4:	ea 85       	ldd	r30, Y+10	; 0x0a
     bd6:	fb 85       	ldd	r31, Y+11	; 0x0b
     bd8:	09 95       	icall
}
     bda:	df 91       	pop	r29
     bdc:	cf 91       	pop	r28
     bde:	1f 91       	pop	r17
     be0:	0f 91       	pop	r16
     be2:	ff 90       	pop	r15
     be4:	08 95       	ret

00000be6 <WIZCHIP_READ>:
/**
@brief  This function reads the value from W5100 registers.
*/
uint8_t  WIZCHIP_READ(uint32_t AddrSel)
{
     be6:	0f 93       	push	r16
     be8:	1f 93       	push	r17
     bea:	cf 93       	push	r28
     bec:	df 93       	push	r29
     bee:	16 2f       	mov	r17, r22
     bf0:	07 2f       	mov	r16, r23
   uint8_t ret;

   WIZCHIP_CRITICAL_ENTER();
     bf2:	c2 e0       	ldi	r28, 0x02	; 2
     bf4:	d1 e0       	ldi	r29, 0x01	; 1
     bf6:	e8 85       	ldd	r30, Y+8	; 0x08
     bf8:	f9 85       	ldd	r31, Y+9	; 0x09
     bfa:	09 95       	icall
   WIZCHIP.CS._select();
     bfc:	ec 85       	ldd	r30, Y+12	; 0x0c
     bfe:	fd 85       	ldd	r31, Y+13	; 0x0d
     c00:	09 95       	icall

#if( (_WIZCHIP_IO_MODE_ & _WIZCHIP_IO_MODE_SPI_))
   WIZCHIP.IF.SPI._write_byte(0x0F);
     c02:	ea 89       	ldd	r30, Y+18	; 0x12
     c04:	fb 89       	ldd	r31, Y+19	; 0x13
     c06:	8f e0       	ldi	r24, 0x0F	; 15
     c08:	09 95       	icall
   WIZCHIP.IF.SPI._write_byte((AddrSel & 0xFF00) >>  8);
     c0a:	ea 89       	ldd	r30, Y+18	; 0x12
     c0c:	fb 89       	ldd	r31, Y+19	; 0x13
     c0e:	80 2f       	mov	r24, r16
     c10:	09 95       	icall
   WIZCHIP.IF.SPI._write_byte((AddrSel & 0x00FF) >>  0);
     c12:	ea 89       	ldd	r30, Y+18	; 0x12
     c14:	fb 89       	ldd	r31, Y+19	; 0x13
     c16:	81 2f       	mov	r24, r17
     c18:	09 95       	icall
   ret = WIZCHIP.IF.SPI._read_byte(); 
     c1a:	e8 89       	ldd	r30, Y+16	; 0x10
     c1c:	f9 89       	ldd	r31, Y+17	; 0x11
     c1e:	09 95       	icall
     c20:	18 2f       	mov	r17, r24

#else
   #error "Unknown _WIZCHIP_IO_MODE_ in W5100. !!!"   
#endif

   WIZCHIP.CS._deselect();
     c22:	ee 85       	ldd	r30, Y+14	; 0x0e
     c24:	ff 85       	ldd	r31, Y+15	; 0x0f
     c26:	09 95       	icall
   WIZCHIP_CRITICAL_EXIT();
     c28:	ea 85       	ldd	r30, Y+10	; 0x0a
     c2a:	fb 85       	ldd	r31, Y+11	; 0x0b
     c2c:	09 95       	icall
   return ret;
}
     c2e:	81 2f       	mov	r24, r17
     c30:	df 91       	pop	r29
     c32:	cf 91       	pop	r28
     c34:	1f 91       	pop	r17
     c36:	0f 91       	pop	r16
     c38:	08 95       	ret

00000c3a <WIZCHIP_WRITE_BUF>:

/**
@brief  This function writes into W5100 memory(Buffer)   Scheint jetzt zu funktionieren 19.11.2018
*/ 
void     WIZCHIP_WRITE_BUF(uint32_t AddrSel, uint8_t* pBuf, uint16_t len)
{
     c3a:	8f 92       	push	r8
     c3c:	9f 92       	push	r9
     c3e:	af 92       	push	r10
     c40:	bf 92       	push	r11
     c42:	cf 92       	push	r12
     c44:	df 92       	push	r13
     c46:	ef 92       	push	r14
     c48:	ff 92       	push	r15
     c4a:	0f 93       	push	r16
     c4c:	1f 93       	push	r17
     c4e:	cf 93       	push	r28
     c50:	df 93       	push	r29
     c52:	4b 01       	movw	r8, r22
     c54:	5c 01       	movw	r10, r24
     c56:	6a 01       	movw	r12, r20
     c58:	79 01       	movw	r14, r18
   uint16_t i = 0;

   WIZCHIP_CRITICAL_ENTER(); //Interrupts enable
     c5a:	c2 e0       	ldi	r28, 0x02	; 2
     c5c:	d1 e0       	ldi	r29, 0x01	; 1
     c5e:	e8 85       	ldd	r30, Y+8	; 0x08
     c60:	f9 85       	ldd	r31, Y+9	; 0x09
     c62:	09 95       	icall
   
   WIZCHIP.CS._select();   //M20150601 : Moved here.
     c64:	ec 85       	ldd	r30, Y+12	; 0x0c
     c66:	fd 85       	ldd	r31, Y+13	; 0x0d
     c68:	09 95       	icall
  // debug_uart_transmit_string("Slave i selected\n");
   

#if( (_WIZCHIP_IO_MODE_ & _WIZCHIP_IO_MODE_SPI_))
  for(i = 0; i < len; i++)
     c6a:	e1 14       	cp	r14, r1
     c6c:	f1 04       	cpc	r15, r1
     c6e:	61 f1       	breq	.+88     	; 0xcc8 <WIZCHIP_WRITE_BUF+0x8e>
     c70:	e4 01       	movw	r28, r8
     c72:	86 01       	movw	r16, r12
     c74:	ce 0c       	add	r12, r14
     c76:	df 1c       	adc	r13, r15
  {
     //M20160715 : Depricated "M20150601 : Remove _select() to top-side"
     //            CS should be controlled every SPI frames
     WIZCHIP.CS._select();
     c78:	0f 2e       	mov	r0, r31
     c7a:	f2 e0       	ldi	r31, 0x02	; 2
     c7c:	ef 2e       	mov	r14, r31
     c7e:	f1 e0       	ldi	r31, 0x01	; 1
     c80:	ff 2e       	mov	r15, r31
     c82:	f0 2d       	mov	r31, r0
     c84:	d7 01       	movw	r26, r14
     c86:	1c 96       	adiw	r26, 0x0c	; 12
     c88:	ed 91       	ld	r30, X+
     c8a:	fc 91       	ld	r31, X
     c8c:	1d 97       	sbiw	r26, 0x0d	; 13
     c8e:	09 95       	icall
	 //debug_uart_transmit_string("SPI Data");
	 wizchip_spi_writebyte(0x0F); //Wird bertragen 19.11.2017
     c90:	8f e0       	ldi	r24, 0x0F	; 15
     c92:	90 e0       	ldi	r25, 0x00	; 0
     c94:	0e 94 82 0a 	call	0x1504	; 0x1504 <wizchip_spi_writebyte>
     //WIZCHIP.IF.SPI._write_byte(0xF0);
	 wizchip_spi_writebyte((((uint16_t)(AddrSel+i)) & 0xFF00) >>  8);
     c98:	8d 2f       	mov	r24, r29
     c9a:	90 e0       	ldi	r25, 0x00	; 0
     c9c:	0e 94 82 0a 	call	0x1504	; 0x1504 <wizchip_spi_writebyte>
	 //wizchip_spi_writebyte((((uint16_t)(AddrSel+i)) & 0xFF00) >>  8);
    // WIZCHIP.IF.SPI._write_byte((((uint16_t)(AddrSel+i)) & 0xFF00) >>  8);

    // WIZCHIP.IF.SPI._write_byte((((uint16_t)(AddrSel+i)) & 0x00FF) >>  0);
    // WIZCHIP.IF.SPI._write_byte(pBuf[i]);    // Data write (write 1byte data)
	wizchip_spi_writebyte((((uint16_t)(AddrSel+i)) & 0x00FF) >>  0);
     ca0:	ce 01       	movw	r24, r28
     ca2:	99 27       	eor	r25, r25
     ca4:	0e 94 82 0a 	call	0x1504	; 0x1504 <wizchip_spi_writebyte>
	wizchip_spi_writebyte(pBuf[i]);    // Data write (write 1byte data)
     ca8:	f8 01       	movw	r30, r16
     caa:	81 91       	ld	r24, Z+
     cac:	8f 01       	movw	r16, r30
     cae:	90 e0       	ldi	r25, 0x00	; 0
     cb0:	0e 94 82 0a 	call	0x1504	; 0x1504 <wizchip_spi_writebyte>
     //M20160715 : Depricated "M20150601 : Remove _select() to top-side"
	  WIZCHIP.CS._deselect();
     cb4:	d7 01       	movw	r26, r14
     cb6:	1e 96       	adiw	r26, 0x0e	; 14
     cb8:	ed 91       	ld	r30, X+
     cba:	fc 91       	ld	r31, X
     cbc:	1f 97       	sbiw	r26, 0x0f	; 15
     cbe:	09 95       	icall
     cc0:	21 96       	adiw	r28, 0x01	; 1
   WIZCHIP.CS._select();   //M20150601 : Moved here.
  // debug_uart_transmit_string("Slave i selected\n");
   

#if( (_WIZCHIP_IO_MODE_ & _WIZCHIP_IO_MODE_SPI_))
  for(i = 0; i < len; i++)
     cc2:	0c 15       	cp	r16, r12
     cc4:	1d 05       	cpc	r17, r13
     cc6:	f1 f6       	brne	.-68     	; 0xc84 <WIZCHIP_WRITE_BUF+0x4a>

#else
   #error "Unknown _WIZCHIP_IO_MODE_ in W5100. !!!!"
#endif
   
   WIZCHIP.CS._deselect();  //M20150601 : Moved here.
     cc8:	c2 e0       	ldi	r28, 0x02	; 2
     cca:	d1 e0       	ldi	r29, 0x01	; 1
     ccc:	ee 85       	ldd	r30, Y+14	; 0x0e
     cce:	ff 85       	ldd	r31, Y+15	; 0x0f
     cd0:	09 95       	icall
   WIZCHIP_CRITICAL_EXIT();
     cd2:	ea 85       	ldd	r30, Y+10	; 0x0a
     cd4:	fb 85       	ldd	r31, Y+11	; 0x0b
     cd6:	09 95       	icall
}
     cd8:	df 91       	pop	r29
     cda:	cf 91       	pop	r28
     cdc:	1f 91       	pop	r17
     cde:	0f 91       	pop	r16
     ce0:	ff 90       	pop	r15
     ce2:	ef 90       	pop	r14
     ce4:	df 90       	pop	r13
     ce6:	cf 90       	pop	r12
     ce8:	bf 90       	pop	r11
     cea:	af 90       	pop	r10
     cec:	9f 90       	pop	r9
     cee:	8f 90       	pop	r8
     cf0:	08 95       	ret

00000cf2 <WIZCHIP_READ_BUF>:
/**
@brief  This function reads into W5100 memory(Buffer)
*/ 

void     WIZCHIP_READ_BUF (uint32_t AddrSel, uint8_t* pBuf, uint16_t len)
{
     cf2:	8f 92       	push	r8
     cf4:	9f 92       	push	r9
     cf6:	af 92       	push	r10
     cf8:	bf 92       	push	r11
     cfa:	cf 92       	push	r12
     cfc:	df 92       	push	r13
     cfe:	ef 92       	push	r14
     d00:	ff 92       	push	r15
     d02:	0f 93       	push	r16
     d04:	1f 93       	push	r17
     d06:	cf 93       	push	r28
     d08:	df 93       	push	r29
     d0a:	4b 01       	movw	r8, r22
     d0c:	5c 01       	movw	r10, r24
     d0e:	6a 01       	movw	r12, r20
     d10:	79 01       	movw	r14, r18
   uint16_t i = 0;
   WIZCHIP_CRITICAL_ENTER();
     d12:	c2 e0       	ldi	r28, 0x02	; 2
     d14:	d1 e0       	ldi	r29, 0x01	; 1
     d16:	e8 85       	ldd	r30, Y+8	; 0x08
     d18:	f9 85       	ldd	r31, Y+9	; 0x09
     d1a:	09 95       	icall
   WIZCHIP.CS._select();   //M20150601 : Moved here.
     d1c:	ec 85       	ldd	r30, Y+12	; 0x0c
     d1e:	fd 85       	ldd	r31, Y+13	; 0x0d
     d20:	09 95       	icall
   
   #if( (_WIZCHIP_IO_MODE_ & _WIZCHIP_IO_MODE_SPI_))
   for(i = 0; i < len; i++)
     d22:	e1 14       	cp	r14, r1
     d24:	f1 04       	cpc	r15, r1
     d26:	59 f1       	breq	.+86     	; 0xd7e <WIZCHIP_READ_BUF+0x8c>
     d28:	e4 01       	movw	r28, r8
     d2a:	86 01       	movw	r16, r12
     d2c:	ce 0c       	add	r12, r14
     d2e:	df 1c       	adc	r13, r15
   {
     //M20160715 : Depricated "M20150601 : Remove _select() to top-side"
     //            CS should be controlled every SPI frames
     WIZCHIP.CS._select();
     d30:	0f 2e       	mov	r0, r31
     d32:	f2 e0       	ldi	r31, 0x02	; 2
     d34:	ef 2e       	mov	r14, r31
     d36:	f1 e0       	ldi	r31, 0x01	; 1
     d38:	ff 2e       	mov	r15, r31
     d3a:	f0 2d       	mov	r31, r0
     d3c:	d7 01       	movw	r26, r14
     d3e:	1c 96       	adiw	r26, 0x0c	; 12
     d40:	ed 91       	ld	r30, X+
     d42:	fc 91       	ld	r31, X
     d44:	1d 97       	sbiw	r26, 0x0d	; 13
     d46:	09 95       	icall
		//Wird auch erneuert, wie WIZCHHIP_WRITE_BUF 20.11.2018	 
		//WIZCHIP.IF.SPI._write_byte(0x0F);	altes Kommando	
		wizchip_spi_writebyte(0x0F); //neues Kommando
     d48:	8f e0       	ldi	r24, 0x0F	; 15
     d4a:	90 e0       	ldi	r25, 0x00	; 0
     d4c:	0e 94 82 0a 	call	0x1504	; 0x1504 <wizchip_spi_writebyte>
        //WIZCHIP.IF.SPI._write_byte((uint16_t)((AddrSel+i) & 0xFF00) >>  8); altes Kommando
		wizchip_spi_writebyte((uint16_t)((AddrSel+i) & 0xFF00) >>  8); //neues Kommando
     d50:	8d 2f       	mov	r24, r29
     d52:	90 e0       	ldi	r25, 0x00	; 0
     d54:	0e 94 82 0a 	call	0x1504	; 0x1504 <wizchip_spi_writebyte>
		//WIZCHIP.IF.SPI._write_byte((uint16_t)((AddrSel+i) & 0x00FF) >>  0); altes Kommando
		wizchip_spi_writebyte((uint16_t)((AddrSel+i) & 0xFF00) >>  8); //neues Kommando
     d58:	8d 2f       	mov	r24, r29
     d5a:	90 e0       	ldi	r25, 0x00	; 0
     d5c:	0e 94 82 0a 	call	0x1504	; 0x1504 <wizchip_spi_writebyte>
      //pBuf[i] = WIZCHIP.IF.SPI._read_byte();  altes Kommando
		pBuf[i] = wizchip_spi_readbyte();
     d60:	0e 94 73 0a 	call	0x14e6	; 0x14e6 <wizchip_spi_readbyte>
     d64:	f8 01       	movw	r30, r16
     d66:	81 93       	st	Z+, r24
     d68:	8f 01       	movw	r16, r30
     //M20160715 : Depricated "M20150601 : Remove _select() to top-side"
	  WIZCHIP.CS._deselect();
     d6a:	d7 01       	movw	r26, r14
     d6c:	1e 96       	adiw	r26, 0x0e	; 14
     d6e:	ed 91       	ld	r30, X+
     d70:	fc 91       	ld	r31, X
     d72:	1f 97       	sbiw	r26, 0x0f	; 15
     d74:	09 95       	icall
     d76:	21 96       	adiw	r28, 0x01	; 1
   uint16_t i = 0;
   WIZCHIP_CRITICAL_ENTER();
   WIZCHIP.CS._select();   //M20150601 : Moved here.
   
   #if( (_WIZCHIP_IO_MODE_ & _WIZCHIP_IO_MODE_SPI_))
   for(i = 0; i < len; i++)
     d78:	0c 15       	cp	r16, r12
     d7a:	1d 05       	cpc	r17, r13
     d7c:	f9 f6       	brne	.-66     	; 0xd3c <WIZCHIP_READ_BUF+0x4a>
   
#else
   #error "Unknown _WIZCHIP_IO_MODE_ in W5100. !!!!"
#endif

   WIZCHIP.CS._deselect();    //M20150601 : Moved Here.
     d7e:	c2 e0       	ldi	r28, 0x02	; 2
     d80:	d1 e0       	ldi	r29, 0x01	; 1
     d82:	ee 85       	ldd	r30, Y+14	; 0x0e
     d84:	ff 85       	ldd	r31, Y+15	; 0x0f
     d86:	09 95       	icall
   WIZCHIP_CRITICAL_EXIT();
     d88:	ea 85       	ldd	r30, Y+10	; 0x0a
     d8a:	fb 85       	ldd	r31, Y+11	; 0x0b
     d8c:	09 95       	icall
}
     d8e:	df 91       	pop	r29
     d90:	cf 91       	pop	r28
     d92:	1f 91       	pop	r17
     d94:	0f 91       	pop	r16
     d96:	ff 90       	pop	r15
     d98:	ef 90       	pop	r14
     d9a:	df 90       	pop	r13
     d9c:	cf 90       	pop	r12
     d9e:	bf 90       	pop	r11
     da0:	af 90       	pop	r10
     da2:	9f 90       	pop	r9
     da4:	8f 90       	pop	r8
     da6:	08 95       	ret

00000da8 <getSn_TX_FSR>:
///////////////////////////////////
// Socket N regsiter IO function //
///////////////////////////////////

uint16_t getSn_TX_FSR(uint8_t sn)
{
     da8:	8f 92       	push	r8
     daa:	9f 92       	push	r9
     dac:	af 92       	push	r10
     dae:	bf 92       	push	r11
     db0:	cf 92       	push	r12
     db2:	df 92       	push	r13
     db4:	ef 92       	push	r14
     db6:	ff 92       	push	r15
     db8:	0f 93       	push	r16
     dba:	1f 93       	push	r17
     dbc:	cf 93       	push	r28
     dbe:	df 93       	push	r29
   uint16_t val=0,val1=0;
   do
   {
      val1 = WIZCHIP_READ(Sn_TX_FSR(sn));
     dc0:	c8 2e       	mov	r12, r24
     dc2:	d1 2c       	mov	r13, r1
     dc4:	84 e0       	ldi	r24, 0x04	; 4
     dc6:	c8 0e       	add	r12, r24
     dc8:	d1 1c       	adc	r13, r1
     dca:	dc 2c       	mov	r13, r12
     dcc:	cc 24       	eor	r12, r12
     dce:	46 01       	movw	r8, r12
     dd0:	80 e2       	ldi	r24, 0x20	; 32
     dd2:	88 0e       	add	r8, r24
     dd4:	91 1c       	adc	r9, r1
     dd6:	09 2c       	mov	r0, r9
     dd8:	00 0c       	add	r0, r0
     dda:	aa 08       	sbc	r10, r10
     ddc:	bb 08       	sbc	r11, r11
      val1 = (val1 << 8) + WIZCHIP_READ(WIZCHIP_OFFSET_INC(Sn_TX_FSR(sn),1));
     dde:	81 e2       	ldi	r24, 0x21	; 33
     de0:	c8 0e       	add	r12, r24
     de2:	d1 1c       	adc	r13, r1
     de4:	0d 2c       	mov	r0, r13
     de6:	00 0c       	add	r0, r0
     de8:	ee 08       	sbc	r14, r14
     dea:	ff 08       	sbc	r15, r15
// Socket N regsiter IO function //
///////////////////////////////////

uint16_t getSn_TX_FSR(uint8_t sn)
{
   uint16_t val=0,val1=0;
     dec:	00 e0       	ldi	r16, 0x00	; 0
     dee:	10 e0       	ldi	r17, 0x00	; 0
   do
   {
      val1 = WIZCHIP_READ(Sn_TX_FSR(sn));
     df0:	c5 01       	movw	r24, r10
     df2:	b4 01       	movw	r22, r8
     df4:	0e 94 f3 05 	call	0xbe6	; 0xbe6 <WIZCHIP_READ>
      val1 = (val1 << 8) + WIZCHIP_READ(WIZCHIP_OFFSET_INC(Sn_TX_FSR(sn),1));
     df8:	c8 2f       	mov	r28, r24
     dfa:	d0 e0       	ldi	r29, 0x00	; 0
     dfc:	dc 2f       	mov	r29, r28
     dfe:	cc 27       	eor	r28, r28
     e00:	c7 01       	movw	r24, r14
     e02:	b6 01       	movw	r22, r12
     e04:	0e 94 f3 05 	call	0xbe6	; 0xbe6 <WIZCHIP_READ>
     e08:	c8 0f       	add	r28, r24
     e0a:	d1 1d       	adc	r29, r1
      if (val1 != 0)
     e0c:	20 97       	sbiw	r28, 0x00	; 0
     e0e:	71 f0       	breq	.+28     	; 0xe2c <getSn_TX_FSR+0x84>
      {
        val = WIZCHIP_READ(Sn_TX_FSR(sn));
     e10:	c5 01       	movw	r24, r10
     e12:	b4 01       	movw	r22, r8
     e14:	0e 94 f3 05 	call	0xbe6	; 0xbe6 <WIZCHIP_READ>
        val = (val << 8) + WIZCHIP_READ(WIZCHIP_OFFSET_INC(Sn_TX_FSR(sn),1));
     e18:	08 2f       	mov	r16, r24
     e1a:	10 e0       	ldi	r17, 0x00	; 0
     e1c:	10 2f       	mov	r17, r16
     e1e:	00 27       	eor	r16, r16
     e20:	c7 01       	movw	r24, r14
     e22:	b6 01       	movw	r22, r12
     e24:	0e 94 f3 05 	call	0xbe6	; 0xbe6 <WIZCHIP_READ>
     e28:	08 0f       	add	r16, r24
     e2a:	11 1d       	adc	r17, r1
      }
   }while (val != val1);
     e2c:	0c 17       	cp	r16, r28
     e2e:	1d 07       	cpc	r17, r29
     e30:	f9 f6       	brne	.-66     	; 0xdf0 <getSn_TX_FSR+0x48>
   return val;
}
     e32:	ce 01       	movw	r24, r28
     e34:	df 91       	pop	r29
     e36:	cf 91       	pop	r28
     e38:	1f 91       	pop	r17
     e3a:	0f 91       	pop	r16
     e3c:	ff 90       	pop	r15
     e3e:	ef 90       	pop	r14
     e40:	df 90       	pop	r13
     e42:	cf 90       	pop	r12
     e44:	bf 90       	pop	r11
     e46:	af 90       	pop	r10
     e48:	9f 90       	pop	r9
     e4a:	8f 90       	pop	r8
     e4c:	08 95       	ret

00000e4e <getSn_RX_RSR>:


uint16_t getSn_RX_RSR(uint8_t sn)
{
     e4e:	8f 92       	push	r8
     e50:	9f 92       	push	r9
     e52:	af 92       	push	r10
     e54:	bf 92       	push	r11
     e56:	cf 92       	push	r12
     e58:	df 92       	push	r13
     e5a:	ef 92       	push	r14
     e5c:	ff 92       	push	r15
     e5e:	0f 93       	push	r16
     e60:	1f 93       	push	r17
     e62:	cf 93       	push	r28
     e64:	df 93       	push	r29
   uint16_t val=0,val1=0;
   do
   {
      val1 = WIZCHIP_READ(Sn_RX_RSR(sn));
     e66:	c8 2e       	mov	r12, r24
     e68:	d1 2c       	mov	r13, r1
     e6a:	84 e0       	ldi	r24, 0x04	; 4
     e6c:	c8 0e       	add	r12, r24
     e6e:	d1 1c       	adc	r13, r1
     e70:	dc 2c       	mov	r13, r12
     e72:	cc 24       	eor	r12, r12
     e74:	46 01       	movw	r8, r12
     e76:	86 e2       	ldi	r24, 0x26	; 38
     e78:	88 0e       	add	r8, r24
     e7a:	91 1c       	adc	r9, r1
     e7c:	09 2c       	mov	r0, r9
     e7e:	00 0c       	add	r0, r0
     e80:	aa 08       	sbc	r10, r10
     e82:	bb 08       	sbc	r11, r11
      val1 = (val1 << 8) + WIZCHIP_READ(WIZCHIP_OFFSET_INC(Sn_RX_RSR(sn),1));
     e84:	87 e2       	ldi	r24, 0x27	; 39
     e86:	c8 0e       	add	r12, r24
     e88:	d1 1c       	adc	r13, r1
     e8a:	0d 2c       	mov	r0, r13
     e8c:	00 0c       	add	r0, r0
     e8e:	ee 08       	sbc	r14, r14
     e90:	ff 08       	sbc	r15, r15
}


uint16_t getSn_RX_RSR(uint8_t sn)
{
   uint16_t val=0,val1=0;
     e92:	00 e0       	ldi	r16, 0x00	; 0
     e94:	10 e0       	ldi	r17, 0x00	; 0
   do
   {
      val1 = WIZCHIP_READ(Sn_RX_RSR(sn));
     e96:	c5 01       	movw	r24, r10
     e98:	b4 01       	movw	r22, r8
     e9a:	0e 94 f3 05 	call	0xbe6	; 0xbe6 <WIZCHIP_READ>
      val1 = (val1 << 8) + WIZCHIP_READ(WIZCHIP_OFFSET_INC(Sn_RX_RSR(sn),1));
     e9e:	c8 2f       	mov	r28, r24
     ea0:	d0 e0       	ldi	r29, 0x00	; 0
     ea2:	dc 2f       	mov	r29, r28
     ea4:	cc 27       	eor	r28, r28
     ea6:	c7 01       	movw	r24, r14
     ea8:	b6 01       	movw	r22, r12
     eaa:	0e 94 f3 05 	call	0xbe6	; 0xbe6 <WIZCHIP_READ>
     eae:	c8 0f       	add	r28, r24
     eb0:	d1 1d       	adc	r29, r1
      if (val1 != 0)
     eb2:	20 97       	sbiw	r28, 0x00	; 0
     eb4:	71 f0       	breq	.+28     	; 0xed2 <getSn_RX_RSR+0x84>
      {
        val = WIZCHIP_READ(Sn_RX_RSR(sn));
     eb6:	c5 01       	movw	r24, r10
     eb8:	b4 01       	movw	r22, r8
     eba:	0e 94 f3 05 	call	0xbe6	; 0xbe6 <WIZCHIP_READ>
        val = (val << 8) + WIZCHIP_READ(WIZCHIP_OFFSET_INC(Sn_RX_RSR(sn),1));
     ebe:	08 2f       	mov	r16, r24
     ec0:	10 e0       	ldi	r17, 0x00	; 0
     ec2:	10 2f       	mov	r17, r16
     ec4:	00 27       	eor	r16, r16
     ec6:	c7 01       	movw	r24, r14
     ec8:	b6 01       	movw	r22, r12
     eca:	0e 94 f3 05 	call	0xbe6	; 0xbe6 <WIZCHIP_READ>
     ece:	08 0f       	add	r16, r24
     ed0:	11 1d       	adc	r17, r1
      }
   }while (val != val1);
     ed2:	0c 17       	cp	r16, r28
     ed4:	1d 07       	cpc	r17, r29
     ed6:	f9 f6       	brne	.-66     	; 0xe96 <getSn_RX_RSR+0x48>
   return val;
}
     ed8:	ce 01       	movw	r24, r28
     eda:	df 91       	pop	r29
     edc:	cf 91       	pop	r28
     ede:	1f 91       	pop	r17
     ee0:	0f 91       	pop	r16
     ee2:	ff 90       	pop	r15
     ee4:	ef 90       	pop	r14
     ee6:	df 90       	pop	r13
     ee8:	cf 90       	pop	r12
     eea:	bf 90       	pop	r11
     eec:	af 90       	pop	r10
     eee:	9f 90       	pop	r9
     ef0:	8f 90       	pop	r8
     ef2:	08 95       	ret

00000ef4 <getSn_RxBASE>:

/////////////////////////////////////
// Sn_TXBUF & Sn_RXBUF IO function //
/////////////////////////////////////
uint32_t getSn_RxBASE(uint8_t sn)
{
     ef4:	7f 92       	push	r7
     ef6:	8f 92       	push	r8
     ef8:	9f 92       	push	r9
     efa:	af 92       	push	r10
     efc:	bf 92       	push	r11
     efe:	cf 92       	push	r12
     f00:	df 92       	push	r13
     f02:	ef 92       	push	r14
     f04:	ff 92       	push	r15
     f06:	0f 93       	push	r16
     f08:	1f 93       	push	r17
     f0a:	cf 93       	push	r28
     f0c:	df 93       	push	r29
#if ( _WIZCHIP_IO_MODE_ == _WIZCHIP_IO_MODE_BUS_DIR_)
   uint32_t rxbase = _W5100_IO_BASE_ + _WIZCHIP_IO_RXBUF_;
#else   
   uint32_t rxbase = _WIZCHIP_IO_RXBUF_;
#endif   
   for(i = 0; i < sn; i++)
     f0e:	c8 2f       	mov	r28, r24
     f10:	d0 e0       	ldi	r29, 0x00	; 0
     f12:	1c 16       	cp	r1, r28
     f14:	1d 06       	cpc	r1, r29
     f16:	0c f0       	brlt	.+2      	; 0xf1a <getSn_RxBASE+0x26>
     f18:	40 c0       	rjmp	.+128    	; 0xf9a <getSn_RxBASE+0xa6>
     f1a:	c1 2c       	mov	r12, r1
     f1c:	d1 2c       	mov	r13, r1
     f1e:	0f 2e       	mov	r0, r31
     f20:	81 2c       	mov	r8, r1
     f22:	f0 e6       	ldi	r31, 0x60	; 96
     f24:	9f 2e       	mov	r9, r31
     f26:	a1 2c       	mov	r10, r1
     f28:	b1 2c       	mov	r11, r1
     f2a:	f0 2d       	mov	r31, r0
     f2c:	71 2c       	mov	r7, r1
      rxbase += getSn_RxMAX(i);
     f2e:	0f 2e       	mov	r0, r31
     f30:	f3 e0       	ldi	r31, 0x03	; 3
     f32:	ef 2e       	mov	r14, r31
     f34:	f1 2c       	mov	r15, r1
     f36:	f0 2d       	mov	r31, r0
     f38:	01 e0       	ldi	r16, 0x01	; 1
     f3a:	10 e0       	ldi	r17, 0x00	; 0
     f3c:	6a e1       	ldi	r22, 0x1A	; 26
     f3e:	70 e0       	ldi	r23, 0x00	; 0
     f40:	80 e0       	ldi	r24, 0x00	; 0
     f42:	90 e0       	ldi	r25, 0x00	; 0
     f44:	0e 94 f3 05 	call	0xbe6	; 0xbe6 <WIZCHIP_READ>
     f48:	cc 0c       	add	r12, r12
     f4a:	dd 1c       	adc	r13, r13
     f4c:	97 01       	movw	r18, r14
     f4e:	0c 2c       	mov	r0, r12
     f50:	02 c0       	rjmp	.+4      	; 0xf56 <getSn_RxBASE+0x62>
     f52:	22 0f       	add	r18, r18
     f54:	33 1f       	adc	r19, r19
     f56:	0a 94       	dec	r0
     f58:	e2 f7       	brpl	.-8      	; 0xf52 <getSn_RxBASE+0x5e>
     f5a:	90 e0       	ldi	r25, 0x00	; 0
     f5c:	82 23       	and	r24, r18
     f5e:	93 23       	and	r25, r19
     f60:	02 c0       	rjmp	.+4      	; 0xf66 <getSn_RxBASE+0x72>
     f62:	95 95       	asr	r25
     f64:	87 95       	ror	r24
     f66:	ca 94       	dec	r12
     f68:	e2 f7       	brpl	.-8      	; 0xf62 <getSn_RxBASE+0x6e>
     f6a:	98 01       	movw	r18, r16
     f6c:	02 c0       	rjmp	.+4      	; 0xf72 <getSn_RxBASE+0x7e>
     f6e:	22 0f       	add	r18, r18
     f70:	33 1f       	adc	r19, r19
     f72:	8a 95       	dec	r24
     f74:	e2 f7       	brpl	.-8      	; 0xf6e <getSn_RxBASE+0x7a>
     f76:	c9 01       	movw	r24, r18
     f78:	98 2f       	mov	r25, r24
     f7a:	88 27       	eor	r24, r24
     f7c:	99 0f       	add	r25, r25
     f7e:	99 0f       	add	r25, r25
     f80:	88 0e       	add	r8, r24
     f82:	99 1e       	adc	r9, r25
     f84:	a1 1c       	adc	r10, r1
     f86:	b1 1c       	adc	r11, r1
     f88:	73 94       	inc	r7
#if ( _WIZCHIP_IO_MODE_ == _WIZCHIP_IO_MODE_BUS_DIR_)
   uint32_t rxbase = _W5100_IO_BASE_ + _WIZCHIP_IO_RXBUF_;
#else   
   uint32_t rxbase = _WIZCHIP_IO_RXBUF_;
#endif   
   for(i = 0; i < sn; i++)
     f8a:	c7 2c       	mov	r12, r7
     f8c:	07 2c       	mov	r0, r7
     f8e:	00 0c       	add	r0, r0
     f90:	dd 08       	sbc	r13, r13
     f92:	cc 16       	cp	r12, r28
     f94:	dd 06       	cpc	r13, r29
     f96:	94 f2       	brlt	.-92     	; 0xf3c <getSn_RxBASE+0x48>
     f98:	07 c0       	rjmp	.+14     	; 0xfa8 <getSn_RxBASE+0xb4>
{
   int8_t  i;
#if ( _WIZCHIP_IO_MODE_ == _WIZCHIP_IO_MODE_BUS_DIR_)
   uint32_t rxbase = _W5100_IO_BASE_ + _WIZCHIP_IO_RXBUF_;
#else   
   uint32_t rxbase = _WIZCHIP_IO_RXBUF_;
     f9a:	0f 2e       	mov	r0, r31
     f9c:	81 2c       	mov	r8, r1
     f9e:	f0 e6       	ldi	r31, 0x60	; 96
     fa0:	9f 2e       	mov	r9, r31
     fa2:	a1 2c       	mov	r10, r1
     fa4:	b1 2c       	mov	r11, r1
     fa6:	f0 2d       	mov	r31, r0
#endif   
   for(i = 0; i < sn; i++)
      rxbase += getSn_RxMAX(i);

   return rxbase;
}
     fa8:	c5 01       	movw	r24, r10
     faa:	b4 01       	movw	r22, r8
     fac:	df 91       	pop	r29
     fae:	cf 91       	pop	r28
     fb0:	1f 91       	pop	r17
     fb2:	0f 91       	pop	r16
     fb4:	ff 90       	pop	r15
     fb6:	ef 90       	pop	r14
     fb8:	df 90       	pop	r13
     fba:	cf 90       	pop	r12
     fbc:	bf 90       	pop	r11
     fbe:	af 90       	pop	r10
     fc0:	9f 90       	pop	r9
     fc2:	8f 90       	pop	r8
     fc4:	7f 90       	pop	r7
     fc6:	08 95       	ret

00000fc8 <getSn_TxBASE>:

uint32_t getSn_TxBASE(uint8_t sn)
{
     fc8:	7f 92       	push	r7
     fca:	8f 92       	push	r8
     fcc:	9f 92       	push	r9
     fce:	af 92       	push	r10
     fd0:	bf 92       	push	r11
     fd2:	cf 92       	push	r12
     fd4:	df 92       	push	r13
     fd6:	ef 92       	push	r14
     fd8:	ff 92       	push	r15
     fda:	0f 93       	push	r16
     fdc:	1f 93       	push	r17
     fde:	cf 93       	push	r28
     fe0:	df 93       	push	r29
#if ( _WIZCHIP_IO_MODE_ == _WIZCHIP_IO_MODE_BUS_DIR_)
   uint32_t txbase = _W5100_IO_BASE_ + _WIZCHIP_IO_TXBUF_;
#else   
   uint32_t txbase = _WIZCHIP_IO_TXBUF_;
#endif   
   for(i = 0; i < sn; i++)
     fe2:	c8 2f       	mov	r28, r24
     fe4:	d0 e0       	ldi	r29, 0x00	; 0
     fe6:	1c 16       	cp	r1, r28
     fe8:	1d 06       	cpc	r1, r29
     fea:	f4 f5       	brge	.+124    	; 0x1068 <getSn_TxBASE+0xa0>
     fec:	c1 2c       	mov	r12, r1
     fee:	d1 2c       	mov	r13, r1
     ff0:	81 2c       	mov	r8, r1
     ff2:	91 2c       	mov	r9, r1
     ff4:	54 01       	movw	r10, r8
     ff6:	68 94       	set
     ff8:	96 f8       	bld	r9, 6
     ffa:	71 2c       	mov	r7, r1
      txbase += getSn_TxMAX(i);
     ffc:	0f 2e       	mov	r0, r31
     ffe:	f3 e0       	ldi	r31, 0x03	; 3
    1000:	ef 2e       	mov	r14, r31
    1002:	f1 2c       	mov	r15, r1
    1004:	f0 2d       	mov	r31, r0
    1006:	01 e0       	ldi	r16, 0x01	; 1
    1008:	10 e0       	ldi	r17, 0x00	; 0
    100a:	6b e1       	ldi	r22, 0x1B	; 27
    100c:	70 e0       	ldi	r23, 0x00	; 0
    100e:	80 e0       	ldi	r24, 0x00	; 0
    1010:	90 e0       	ldi	r25, 0x00	; 0
    1012:	0e 94 f3 05 	call	0xbe6	; 0xbe6 <WIZCHIP_READ>
    1016:	cc 0c       	add	r12, r12
    1018:	dd 1c       	adc	r13, r13
    101a:	97 01       	movw	r18, r14
    101c:	0c 2c       	mov	r0, r12
    101e:	02 c0       	rjmp	.+4      	; 0x1024 <getSn_TxBASE+0x5c>
    1020:	22 0f       	add	r18, r18
    1022:	33 1f       	adc	r19, r19
    1024:	0a 94       	dec	r0
    1026:	e2 f7       	brpl	.-8      	; 0x1020 <getSn_TxBASE+0x58>
    1028:	90 e0       	ldi	r25, 0x00	; 0
    102a:	82 23       	and	r24, r18
    102c:	93 23       	and	r25, r19
    102e:	02 c0       	rjmp	.+4      	; 0x1034 <getSn_TxBASE+0x6c>
    1030:	95 95       	asr	r25
    1032:	87 95       	ror	r24
    1034:	ca 94       	dec	r12
    1036:	e2 f7       	brpl	.-8      	; 0x1030 <getSn_TxBASE+0x68>
    1038:	98 01       	movw	r18, r16
    103a:	02 c0       	rjmp	.+4      	; 0x1040 <getSn_TxBASE+0x78>
    103c:	22 0f       	add	r18, r18
    103e:	33 1f       	adc	r19, r19
    1040:	8a 95       	dec	r24
    1042:	e2 f7       	brpl	.-8      	; 0x103c <getSn_TxBASE+0x74>
    1044:	c9 01       	movw	r24, r18
    1046:	98 2f       	mov	r25, r24
    1048:	88 27       	eor	r24, r24
    104a:	99 0f       	add	r25, r25
    104c:	99 0f       	add	r25, r25
    104e:	88 0e       	add	r8, r24
    1050:	99 1e       	adc	r9, r25
    1052:	a1 1c       	adc	r10, r1
    1054:	b1 1c       	adc	r11, r1
    1056:	73 94       	inc	r7
#if ( _WIZCHIP_IO_MODE_ == _WIZCHIP_IO_MODE_BUS_DIR_)
   uint32_t txbase = _W5100_IO_BASE_ + _WIZCHIP_IO_TXBUF_;
#else   
   uint32_t txbase = _WIZCHIP_IO_TXBUF_;
#endif   
   for(i = 0; i < sn; i++)
    1058:	c7 2c       	mov	r12, r7
    105a:	07 2c       	mov	r0, r7
    105c:	00 0c       	add	r0, r0
    105e:	dd 08       	sbc	r13, r13
    1060:	cc 16       	cp	r12, r28
    1062:	dd 06       	cpc	r13, r29
    1064:	94 f2       	brlt	.-92     	; 0x100a <getSn_TxBASE+0x42>
    1066:	05 c0       	rjmp	.+10     	; 0x1072 <getSn_TxBASE+0xaa>
{
   int8_t  i;
#if ( _WIZCHIP_IO_MODE_ == _WIZCHIP_IO_MODE_BUS_DIR_)
   uint32_t txbase = _W5100_IO_BASE_ + _WIZCHIP_IO_TXBUF_;
#else   
   uint32_t txbase = _WIZCHIP_IO_TXBUF_;
    1068:	81 2c       	mov	r8, r1
    106a:	91 2c       	mov	r9, r1
    106c:	54 01       	movw	r10, r8
    106e:	68 94       	set
    1070:	96 f8       	bld	r9, 6
#endif   
   for(i = 0; i < sn; i++)
      txbase += getSn_TxMAX(i);
   return txbase;
}
    1072:	c5 01       	movw	r24, r10
    1074:	b4 01       	movw	r22, r8
    1076:	df 91       	pop	r29
    1078:	cf 91       	pop	r28
    107a:	1f 91       	pop	r17
    107c:	0f 91       	pop	r16
    107e:	ff 90       	pop	r15
    1080:	ef 90       	pop	r14
    1082:	df 90       	pop	r13
    1084:	cf 90       	pop	r12
    1086:	bf 90       	pop	r11
    1088:	af 90       	pop	r10
    108a:	9f 90       	pop	r9
    108c:	8f 90       	pop	r8
    108e:	7f 90       	pop	r7
    1090:	08 95       	ret

00001092 <wiz_send_data>:
the data in transmite buffer. Here also take care of the condition while it exceed
the Tx memory uper-bound of socket.

*/
void wiz_send_data(uint8_t sn, uint8_t *wizdata, uint16_t len)
{
    1092:	2f 92       	push	r2
    1094:	3f 92       	push	r3
    1096:	4f 92       	push	r4
    1098:	5f 92       	push	r5
    109a:	6f 92       	push	r6
    109c:	7f 92       	push	r7
    109e:	8f 92       	push	r8
    10a0:	9f 92       	push	r9
    10a2:	af 92       	push	r10
    10a4:	bf 92       	push	r11
    10a6:	cf 92       	push	r12
    10a8:	df 92       	push	r13
    10aa:	ef 92       	push	r14
    10ac:	ff 92       	push	r15
    10ae:	0f 93       	push	r16
    10b0:	1f 93       	push	r17
    10b2:	cf 93       	push	r28
    10b4:	df 93       	push	r29
    10b6:	cd b7       	in	r28, 0x3d	; 61
    10b8:	de b7       	in	r29, 0x3e	; 62
    10ba:	2b 97       	sbiw	r28, 0x0b	; 11
    10bc:	0f b6       	in	r0, 0x3f	; 63
    10be:	f8 94       	cli
    10c0:	de bf       	out	0x3e, r29	; 62
    10c2:	0f be       	out	0x3f, r0	; 63
    10c4:	cd bf       	out	0x3d, r28	; 61
    10c6:	8b 83       	std	Y+3, r24	; 0x03
    10c8:	7d 83       	std	Y+5, r23	; 0x05
    10ca:	6c 83       	std	Y+4, r22	; 0x04
    10cc:	2a 01       	movw	r4, r20
  uint16_t ptr;
  uint16_t size;
  uint16_t dst_mask;
  uint16_t dst_ptr;

  ptr = getSn_TX_WR(sn);
    10ce:	28 2f       	mov	r18, r24
    10d0:	30 e0       	ldi	r19, 0x00	; 0
    10d2:	3a 83       	std	Y+2, r19	; 0x02
    10d4:	29 83       	std	Y+1, r18	; 0x01
    10d6:	69 01       	movw	r12, r18
    10d8:	84 e0       	ldi	r24, 0x04	; 4
    10da:	c8 0e       	add	r12, r24
    10dc:	d1 1c       	adc	r13, r1
    10de:	dc 2c       	mov	r13, r12
    10e0:	cc 24       	eor	r12, r12
    10e2:	46 01       	movw	r8, r12
    10e4:	94 e2       	ldi	r25, 0x24	; 36
    10e6:	89 0e       	add	r8, r25
    10e8:	91 1c       	adc	r9, r1
    10ea:	09 2c       	mov	r0, r9
    10ec:	00 0c       	add	r0, r0
    10ee:	aa 08       	sbc	r10, r10
    10f0:	bb 08       	sbc	r11, r11
    10f2:	c5 01       	movw	r24, r10
    10f4:	b4 01       	movw	r22, r8
    10f6:	0e 94 f3 05 	call	0xbe6	; 0xbe6 <WIZCHIP_READ>
    10fa:	18 2f       	mov	r17, r24
    10fc:	25 e2       	ldi	r18, 0x25	; 37
    10fe:	c2 0e       	add	r12, r18
    1100:	d1 1c       	adc	r13, r1
    1102:	0d 2c       	mov	r0, r13
    1104:	00 0c       	add	r0, r0
    1106:	ee 08       	sbc	r14, r14
    1108:	ff 08       	sbc	r15, r15
    110a:	c7 01       	movw	r24, r14
    110c:	b6 01       	movw	r22, r12
    110e:	0e 94 f3 05 	call	0xbe6	; 0xbe6 <WIZCHIP_READ>
    1112:	21 2f       	mov	r18, r17
    1114:	30 e0       	ldi	r19, 0x00	; 0
    1116:	32 2f       	mov	r19, r18
    1118:	22 27       	eor	r18, r18
    111a:	39 01       	movw	r6, r18
    111c:	68 0e       	add	r6, r24
    111e:	71 1c       	adc	r7, r1

  dst_mask = ptr & getSn_TxMASK(sn);
    1120:	6b e1       	ldi	r22, 0x1B	; 27
    1122:	70 e0       	ldi	r23, 0x00	; 0
    1124:	80 e0       	ldi	r24, 0x00	; 0
    1126:	90 e0       	ldi	r25, 0x00	; 0
    1128:	0e 94 f3 05 	call	0xbe6	; 0xbe6 <WIZCHIP_READ>
    112c:	29 81       	ldd	r18, Y+1	; 0x01
    112e:	3a 81       	ldd	r19, Y+2	; 0x02
    1130:	22 0f       	add	r18, r18
    1132:	33 1f       	adc	r19, r19
    1134:	3a 83       	std	Y+2, r19	; 0x02
    1136:	29 83       	std	Y+1, r18	; 0x01
    1138:	23 e0       	ldi	r18, 0x03	; 3
    113a:	30 e0       	ldi	r19, 0x00	; 0
    113c:	09 80       	ldd	r0, Y+1	; 0x01
    113e:	02 c0       	rjmp	.+4      	; 0x1144 <wiz_send_data+0xb2>
    1140:	22 0f       	add	r18, r18
    1142:	33 1f       	adc	r19, r19
    1144:	0a 94       	dec	r0
    1146:	e2 f7       	brpl	.-8      	; 0x1140 <wiz_send_data+0xae>
    1148:	3b 87       	std	Y+11, r19	; 0x0b
    114a:	2a 87       	std	Y+10, r18	; 0x0a
    114c:	90 e0       	ldi	r25, 0x00	; 0
    114e:	82 23       	and	r24, r18
    1150:	93 23       	and	r25, r19
    1152:	09 80       	ldd	r0, Y+1	; 0x01
    1154:	02 c0       	rjmp	.+4      	; 0x115a <wiz_send_data+0xc8>
    1156:	95 95       	asr	r25
    1158:	87 95       	ror	r24
    115a:	0a 94       	dec	r0
    115c:	e2 f7       	brpl	.-8      	; 0x1156 <wiz_send_data+0xc4>
    115e:	22 24       	eor	r2, r2
    1160:	23 94       	inc	r2
    1162:	31 2c       	mov	r3, r1
    1164:	81 01       	movw	r16, r2
    1166:	02 c0       	rjmp	.+4      	; 0x116c <wiz_send_data+0xda>
    1168:	00 0f       	add	r16, r16
    116a:	11 1f       	adc	r17, r17
    116c:	8a 95       	dec	r24
    116e:	e2 f7       	brpl	.-8      	; 0x1168 <wiz_send_data+0xd6>
    1170:	10 2f       	mov	r17, r16
    1172:	00 27       	eor	r16, r16
    1174:	11 0f       	add	r17, r17
    1176:	11 0f       	add	r17, r17
    1178:	01 50       	subi	r16, 0x01	; 1
    117a:	11 09       	sbc	r17, r1
    117c:	06 21       	and	r16, r6
    117e:	17 21       	and	r17, r7
  dst_ptr = getSn_TxBASE(sn) + dst_mask;
    1180:	8b 81       	ldd	r24, Y+3	; 0x03
    1182:	0e 94 e4 07 	call	0xfc8	; 0xfc8 <getSn_TxBASE>
    1186:	98 01       	movw	r18, r16
    1188:	26 0f       	add	r18, r22
    118a:	37 1f       	adc	r19, r23
    118c:	3f 83       	std	Y+7, r19	; 0x07
    118e:	2e 83       	std	Y+6, r18	; 0x06
  
  if (dst_mask + len > getSn_TxMAX(sn)) 
    1190:	c8 01       	movw	r24, r16
    1192:	84 0d       	add	r24, r4
    1194:	95 1d       	adc	r25, r5
    1196:	99 87       	std	Y+9, r25	; 0x09
    1198:	88 87       	std	Y+8, r24	; 0x08
    119a:	6b e1       	ldi	r22, 0x1B	; 27
    119c:	70 e0       	ldi	r23, 0x00	; 0
    119e:	80 e0       	ldi	r24, 0x00	; 0
    11a0:	90 e0       	ldi	r25, 0x00	; 0
    11a2:	0e 94 f3 05 	call	0xbe6	; 0xbe6 <WIZCHIP_READ>
    11a6:	90 e0       	ldi	r25, 0x00	; 0
    11a8:	2a 85       	ldd	r18, Y+10	; 0x0a
    11aa:	3b 85       	ldd	r19, Y+11	; 0x0b
    11ac:	82 23       	and	r24, r18
    11ae:	93 23       	and	r25, r19
    11b0:	09 80       	ldd	r0, Y+1	; 0x01
    11b2:	02 c0       	rjmp	.+4      	; 0x11b8 <wiz_send_data+0x126>
    11b4:	95 95       	asr	r25
    11b6:	87 95       	ror	r24
    11b8:	0a 94       	dec	r0
    11ba:	e2 f7       	brpl	.-8      	; 0x11b4 <wiz_send_data+0x122>
    11bc:	02 c0       	rjmp	.+4      	; 0x11c2 <wiz_send_data+0x130>
    11be:	22 0c       	add	r2, r2
    11c0:	33 1c       	adc	r3, r3
    11c2:	8a 95       	dec	r24
    11c4:	e2 f7       	brpl	.-8      	; 0x11be <wiz_send_data+0x12c>
    11c6:	32 2c       	mov	r3, r2
    11c8:	22 24       	eor	r2, r2
    11ca:	33 0c       	add	r3, r3
    11cc:	33 0c       	add	r3, r3
    11ce:	88 85       	ldd	r24, Y+8	; 0x08
    11d0:	99 85       	ldd	r25, Y+9	; 0x09
    11d2:	28 16       	cp	r2, r24
    11d4:	39 06       	cpc	r3, r25
    11d6:	e8 f5       	brcc	.+122    	; 0x1252 <wiz_send_data+0x1c0>
  {
    size = getSn_TxMAX(sn) - dst_mask;
    11d8:	6b e1       	ldi	r22, 0x1B	; 27
    11da:	70 e0       	ldi	r23, 0x00	; 0
    11dc:	80 e0       	ldi	r24, 0x00	; 0
    11de:	90 e0       	ldi	r25, 0x00	; 0
    11e0:	0e 94 f3 05 	call	0xbe6	; 0xbe6 <WIZCHIP_READ>
    11e4:	90 e0       	ldi	r25, 0x00	; 0
    11e6:	2a 85       	ldd	r18, Y+10	; 0x0a
    11e8:	3b 85       	ldd	r19, Y+11	; 0x0b
    11ea:	82 23       	and	r24, r18
    11ec:	93 23       	and	r25, r19
    11ee:	09 80       	ldd	r0, Y+1	; 0x01
    11f0:	02 c0       	rjmp	.+4      	; 0x11f6 <wiz_send_data+0x164>
    11f2:	95 95       	asr	r25
    11f4:	87 95       	ror	r24
    11f6:	0a 94       	dec	r0
    11f8:	e2 f7       	brpl	.-8      	; 0x11f2 <wiz_send_data+0x160>
    11fa:	20 e0       	ldi	r18, 0x00	; 0
    11fc:	34 e0       	ldi	r19, 0x04	; 4
    11fe:	02 c0       	rjmp	.+4      	; 0x1204 <wiz_send_data+0x172>
    1200:	22 0f       	add	r18, r18
    1202:	33 1f       	adc	r19, r19
    1204:	8a 95       	dec	r24
    1206:	e2 f7       	brpl	.-8      	; 0x1200 <wiz_send_data+0x16e>
    1208:	20 1b       	sub	r18, r16
    120a:	31 0b       	sbc	r19, r17
    120c:	3a 83       	std	Y+2, r19	; 0x02
    120e:	29 83       	std	Y+1, r18	; 0x01
    WIZCHIP_WRITE_BUF(dst_ptr, wizdata, size);
    1210:	2e 81       	ldd	r18, Y+6	; 0x06
    1212:	3f 81       	ldd	r19, Y+7	; 0x07
    1214:	b9 01       	movw	r22, r18
    1216:	80 e0       	ldi	r24, 0x00	; 0
    1218:	90 e0       	ldi	r25, 0x00	; 0
    121a:	29 81       	ldd	r18, Y+1	; 0x01
    121c:	3a 81       	ldd	r19, Y+2	; 0x02
    121e:	4c 81       	ldd	r20, Y+4	; 0x04
    1220:	5d 81       	ldd	r21, Y+5	; 0x05
    1222:	0e 94 1d 06 	call	0xc3a	; 0xc3a <WIZCHIP_WRITE_BUF>
    wizdata += size;
    1226:	0c 81       	ldd	r16, Y+4	; 0x04
    1228:	1d 81       	ldd	r17, Y+5	; 0x05
    122a:	89 81       	ldd	r24, Y+1	; 0x01
    122c:	9a 81       	ldd	r25, Y+2	; 0x02
    122e:	08 0f       	add	r16, r24
    1230:	19 1f       	adc	r17, r25
    size = len - size;
    1232:	92 01       	movw	r18, r4
    1234:	28 1b       	sub	r18, r24
    1236:	39 0b       	sbc	r19, r25
    1238:	3a 83       	std	Y+2, r19	; 0x02
    123a:	29 83       	std	Y+1, r18	; 0x01
    dst_ptr = getSn_TxBASE(sn);
    123c:	8b 81       	ldd	r24, Y+3	; 0x03
    123e:	0e 94 e4 07 	call	0xfc8	; 0xfc8 <getSn_TxBASE>
    WIZCHIP_WRITE_BUF(dst_ptr, wizdata, size);
    1242:	88 27       	eor	r24, r24
    1244:	99 27       	eor	r25, r25
    1246:	29 81       	ldd	r18, Y+1	; 0x01
    1248:	3a 81       	ldd	r19, Y+2	; 0x02
    124a:	a8 01       	movw	r20, r16
    124c:	0e 94 1d 06 	call	0xc3a	; 0xc3a <WIZCHIP_WRITE_BUF>
    1250:	0a c0       	rjmp	.+20     	; 0x1266 <wiz_send_data+0x1d4>
  } 
  else
  {
    WIZCHIP_WRITE_BUF(dst_ptr, wizdata, len);
    1252:	2e 81       	ldd	r18, Y+6	; 0x06
    1254:	3f 81       	ldd	r19, Y+7	; 0x07
    1256:	b9 01       	movw	r22, r18
    1258:	80 e0       	ldi	r24, 0x00	; 0
    125a:	90 e0       	ldi	r25, 0x00	; 0
    125c:	92 01       	movw	r18, r4
    125e:	4c 81       	ldd	r20, Y+4	; 0x04
    1260:	5d 81       	ldd	r21, Y+5	; 0x05
    1262:	0e 94 1d 06 	call	0xc3a	; 0xc3a <WIZCHIP_WRITE_BUF>
  }

  ptr += len;
    1266:	46 0c       	add	r4, r6
    1268:	57 1c       	adc	r5, r7

  setSn_TX_WR(sn, ptr);  
    126a:	45 2d       	mov	r20, r5
    126c:	c5 01       	movw	r24, r10
    126e:	b4 01       	movw	r22, r8
    1270:	0e 94 c7 05 	call	0xb8e	; 0xb8e <WIZCHIP_WRITE>
    1274:	44 2d       	mov	r20, r4
    1276:	c7 01       	movw	r24, r14
    1278:	b6 01       	movw	r22, r12
    127a:	0e 94 c7 05 	call	0xb8e	; 0xb8e <WIZCHIP_WRITE>
}
    127e:	2b 96       	adiw	r28, 0x0b	; 11
    1280:	0f b6       	in	r0, 0x3f	; 63
    1282:	f8 94       	cli
    1284:	de bf       	out	0x3e, r29	; 62
    1286:	0f be       	out	0x3f, r0	; 63
    1288:	cd bf       	out	0x3d, r28	; 61
    128a:	df 91       	pop	r29
    128c:	cf 91       	pop	r28
    128e:	1f 91       	pop	r17
    1290:	0f 91       	pop	r16
    1292:	ff 90       	pop	r15
    1294:	ef 90       	pop	r14
    1296:	df 90       	pop	r13
    1298:	cf 90       	pop	r12
    129a:	bf 90       	pop	r11
    129c:	af 90       	pop	r10
    129e:	9f 90       	pop	r9
    12a0:	8f 90       	pop	r8
    12a2:	7f 90       	pop	r7
    12a4:	6f 90       	pop	r6
    12a6:	5f 90       	pop	r5
    12a8:	4f 90       	pop	r4
    12aa:	3f 90       	pop	r3
    12ac:	2f 90       	pop	r2
    12ae:	08 95       	ret

000012b0 <wiz_recv_data>:
It calculate the actual physical address where one has to read
the data from Receive buffer. Here also take care of the condition while it exceed
the Rx memory uper-bound of socket.
*/
void wiz_recv_data(uint8_t sn, uint8_t *wizdata, uint16_t len)
{
    12b0:	2f 92       	push	r2
    12b2:	3f 92       	push	r3
    12b4:	4f 92       	push	r4
    12b6:	5f 92       	push	r5
    12b8:	6f 92       	push	r6
    12ba:	7f 92       	push	r7
    12bc:	8f 92       	push	r8
    12be:	9f 92       	push	r9
    12c0:	af 92       	push	r10
    12c2:	bf 92       	push	r11
    12c4:	cf 92       	push	r12
    12c6:	df 92       	push	r13
    12c8:	ef 92       	push	r14
    12ca:	ff 92       	push	r15
    12cc:	0f 93       	push	r16
    12ce:	1f 93       	push	r17
    12d0:	cf 93       	push	r28
    12d2:	df 93       	push	r29
    12d4:	cd b7       	in	r28, 0x3d	; 61
    12d6:	de b7       	in	r29, 0x3e	; 62
    12d8:	2b 97       	sbiw	r28, 0x0b	; 11
    12da:	0f b6       	in	r0, 0x3f	; 63
    12dc:	f8 94       	cli
    12de:	de bf       	out	0x3e, r29	; 62
    12e0:	0f be       	out	0x3f, r0	; 63
    12e2:	cd bf       	out	0x3d, r28	; 61
    12e4:	8b 83       	std	Y+3, r24	; 0x03
    12e6:	7d 83       	std	Y+5, r23	; 0x05
    12e8:	6c 83       	std	Y+4, r22	; 0x04
    12ea:	2a 01       	movw	r4, r20
  uint16_t ptr;
  uint16_t size;
  uint16_t src_mask;
  uint16_t src_ptr;

  ptr = getSn_RX_RD(sn);
    12ec:	28 2f       	mov	r18, r24
    12ee:	30 e0       	ldi	r19, 0x00	; 0
    12f0:	3a 83       	std	Y+2, r19	; 0x02
    12f2:	29 83       	std	Y+1, r18	; 0x01
    12f4:	69 01       	movw	r12, r18
    12f6:	84 e0       	ldi	r24, 0x04	; 4
    12f8:	c8 0e       	add	r12, r24
    12fa:	d1 1c       	adc	r13, r1
    12fc:	dc 2c       	mov	r13, r12
    12fe:	cc 24       	eor	r12, r12
    1300:	46 01       	movw	r8, r12
    1302:	98 e2       	ldi	r25, 0x28	; 40
    1304:	89 0e       	add	r8, r25
    1306:	91 1c       	adc	r9, r1
    1308:	09 2c       	mov	r0, r9
    130a:	00 0c       	add	r0, r0
    130c:	aa 08       	sbc	r10, r10
    130e:	bb 08       	sbc	r11, r11
    1310:	c5 01       	movw	r24, r10
    1312:	b4 01       	movw	r22, r8
    1314:	0e 94 f3 05 	call	0xbe6	; 0xbe6 <WIZCHIP_READ>
    1318:	18 2f       	mov	r17, r24
    131a:	29 e2       	ldi	r18, 0x29	; 41
    131c:	c2 0e       	add	r12, r18
    131e:	d1 1c       	adc	r13, r1
    1320:	0d 2c       	mov	r0, r13
    1322:	00 0c       	add	r0, r0
    1324:	ee 08       	sbc	r14, r14
    1326:	ff 08       	sbc	r15, r15
    1328:	c7 01       	movw	r24, r14
    132a:	b6 01       	movw	r22, r12
    132c:	0e 94 f3 05 	call	0xbe6	; 0xbe6 <WIZCHIP_READ>
    1330:	21 2f       	mov	r18, r17
    1332:	30 e0       	ldi	r19, 0x00	; 0
    1334:	32 2f       	mov	r19, r18
    1336:	22 27       	eor	r18, r18
    1338:	39 01       	movw	r6, r18
    133a:	68 0e       	add	r6, r24
    133c:	71 1c       	adc	r7, r1
  
  src_mask = (uint32_t)ptr & getSn_RxMASK(sn);
    133e:	6a e1       	ldi	r22, 0x1A	; 26
    1340:	70 e0       	ldi	r23, 0x00	; 0
    1342:	80 e0       	ldi	r24, 0x00	; 0
    1344:	90 e0       	ldi	r25, 0x00	; 0
    1346:	0e 94 f3 05 	call	0xbe6	; 0xbe6 <WIZCHIP_READ>
    134a:	29 81       	ldd	r18, Y+1	; 0x01
    134c:	3a 81       	ldd	r19, Y+2	; 0x02
    134e:	22 0f       	add	r18, r18
    1350:	33 1f       	adc	r19, r19
    1352:	3a 83       	std	Y+2, r19	; 0x02
    1354:	29 83       	std	Y+1, r18	; 0x01
    1356:	23 e0       	ldi	r18, 0x03	; 3
    1358:	30 e0       	ldi	r19, 0x00	; 0
    135a:	09 80       	ldd	r0, Y+1	; 0x01
    135c:	02 c0       	rjmp	.+4      	; 0x1362 <wiz_recv_data+0xb2>
    135e:	22 0f       	add	r18, r18
    1360:	33 1f       	adc	r19, r19
    1362:	0a 94       	dec	r0
    1364:	e2 f7       	brpl	.-8      	; 0x135e <wiz_recv_data+0xae>
    1366:	3b 87       	std	Y+11, r19	; 0x0b
    1368:	2a 87       	std	Y+10, r18	; 0x0a
    136a:	90 e0       	ldi	r25, 0x00	; 0
    136c:	82 23       	and	r24, r18
    136e:	93 23       	and	r25, r19
    1370:	09 80       	ldd	r0, Y+1	; 0x01
    1372:	02 c0       	rjmp	.+4      	; 0x1378 <wiz_recv_data+0xc8>
    1374:	95 95       	asr	r25
    1376:	87 95       	ror	r24
    1378:	0a 94       	dec	r0
    137a:	e2 f7       	brpl	.-8      	; 0x1374 <wiz_recv_data+0xc4>
    137c:	22 24       	eor	r2, r2
    137e:	23 94       	inc	r2
    1380:	31 2c       	mov	r3, r1
    1382:	81 01       	movw	r16, r2
    1384:	02 c0       	rjmp	.+4      	; 0x138a <wiz_recv_data+0xda>
    1386:	00 0f       	add	r16, r16
    1388:	11 1f       	adc	r17, r17
    138a:	8a 95       	dec	r24
    138c:	e2 f7       	brpl	.-8      	; 0x1386 <wiz_recv_data+0xd6>
    138e:	10 2f       	mov	r17, r16
    1390:	00 27       	eor	r16, r16
    1392:	11 0f       	add	r17, r17
    1394:	11 0f       	add	r17, r17
    1396:	01 50       	subi	r16, 0x01	; 1
    1398:	11 09       	sbc	r17, r1
    139a:	06 21       	and	r16, r6
    139c:	17 21       	and	r17, r7
  src_ptr = (getSn_RxBASE(sn) + src_mask);
    139e:	8b 81       	ldd	r24, Y+3	; 0x03
    13a0:	0e 94 7a 07 	call	0xef4	; 0xef4 <getSn_RxBASE>
    13a4:	98 01       	movw	r18, r16
    13a6:	26 0f       	add	r18, r22
    13a8:	37 1f       	adc	r19, r23
    13aa:	3f 83       	std	Y+7, r19	; 0x07
    13ac:	2e 83       	std	Y+6, r18	; 0x06

  
  if( (src_mask + len) > getSn_RxMAX(sn) ) 
    13ae:	c8 01       	movw	r24, r16
    13b0:	84 0d       	add	r24, r4
    13b2:	95 1d       	adc	r25, r5
    13b4:	99 87       	std	Y+9, r25	; 0x09
    13b6:	88 87       	std	Y+8, r24	; 0x08
    13b8:	6a e1       	ldi	r22, 0x1A	; 26
    13ba:	70 e0       	ldi	r23, 0x00	; 0
    13bc:	80 e0       	ldi	r24, 0x00	; 0
    13be:	90 e0       	ldi	r25, 0x00	; 0
    13c0:	0e 94 f3 05 	call	0xbe6	; 0xbe6 <WIZCHIP_READ>
    13c4:	90 e0       	ldi	r25, 0x00	; 0
    13c6:	2a 85       	ldd	r18, Y+10	; 0x0a
    13c8:	3b 85       	ldd	r19, Y+11	; 0x0b
    13ca:	82 23       	and	r24, r18
    13cc:	93 23       	and	r25, r19
    13ce:	09 80       	ldd	r0, Y+1	; 0x01
    13d0:	02 c0       	rjmp	.+4      	; 0x13d6 <wiz_recv_data+0x126>
    13d2:	95 95       	asr	r25
    13d4:	87 95       	ror	r24
    13d6:	0a 94       	dec	r0
    13d8:	e2 f7       	brpl	.-8      	; 0x13d2 <wiz_recv_data+0x122>
    13da:	02 c0       	rjmp	.+4      	; 0x13e0 <wiz_recv_data+0x130>
    13dc:	22 0c       	add	r2, r2
    13de:	33 1c       	adc	r3, r3
    13e0:	8a 95       	dec	r24
    13e2:	e2 f7       	brpl	.-8      	; 0x13dc <wiz_recv_data+0x12c>
    13e4:	32 2c       	mov	r3, r2
    13e6:	22 24       	eor	r2, r2
    13e8:	33 0c       	add	r3, r3
    13ea:	33 0c       	add	r3, r3
    13ec:	88 85       	ldd	r24, Y+8	; 0x08
    13ee:	99 85       	ldd	r25, Y+9	; 0x09
    13f0:	28 16       	cp	r2, r24
    13f2:	39 06       	cpc	r3, r25
    13f4:	e8 f5       	brcc	.+122    	; 0x1470 <wiz_recv_data+0x1c0>
  {
    size = getSn_RxMAX(sn) - src_mask;
    13f6:	6a e1       	ldi	r22, 0x1A	; 26
    13f8:	70 e0       	ldi	r23, 0x00	; 0
    13fa:	80 e0       	ldi	r24, 0x00	; 0
    13fc:	90 e0       	ldi	r25, 0x00	; 0
    13fe:	0e 94 f3 05 	call	0xbe6	; 0xbe6 <WIZCHIP_READ>
    1402:	90 e0       	ldi	r25, 0x00	; 0
    1404:	2a 85       	ldd	r18, Y+10	; 0x0a
    1406:	3b 85       	ldd	r19, Y+11	; 0x0b
    1408:	82 23       	and	r24, r18
    140a:	93 23       	and	r25, r19
    140c:	09 80       	ldd	r0, Y+1	; 0x01
    140e:	02 c0       	rjmp	.+4      	; 0x1414 <wiz_recv_data+0x164>
    1410:	95 95       	asr	r25
    1412:	87 95       	ror	r24
    1414:	0a 94       	dec	r0
    1416:	e2 f7       	brpl	.-8      	; 0x1410 <wiz_recv_data+0x160>
    1418:	20 e0       	ldi	r18, 0x00	; 0
    141a:	34 e0       	ldi	r19, 0x04	; 4
    141c:	02 c0       	rjmp	.+4      	; 0x1422 <wiz_recv_data+0x172>
    141e:	22 0f       	add	r18, r18
    1420:	33 1f       	adc	r19, r19
    1422:	8a 95       	dec	r24
    1424:	e2 f7       	brpl	.-8      	; 0x141e <wiz_recv_data+0x16e>
    1426:	20 1b       	sub	r18, r16
    1428:	31 0b       	sbc	r19, r17
    142a:	3a 83       	std	Y+2, r19	; 0x02
    142c:	29 83       	std	Y+1, r18	; 0x01
    WIZCHIP_READ_BUF((uint32_t)src_ptr, (uint8_t*)wizdata, size);
    142e:	2e 81       	ldd	r18, Y+6	; 0x06
    1430:	3f 81       	ldd	r19, Y+7	; 0x07
    1432:	b9 01       	movw	r22, r18
    1434:	80 e0       	ldi	r24, 0x00	; 0
    1436:	90 e0       	ldi	r25, 0x00	; 0
    1438:	29 81       	ldd	r18, Y+1	; 0x01
    143a:	3a 81       	ldd	r19, Y+2	; 0x02
    143c:	4c 81       	ldd	r20, Y+4	; 0x04
    143e:	5d 81       	ldd	r21, Y+5	; 0x05
    1440:	0e 94 79 06 	call	0xcf2	; 0xcf2 <WIZCHIP_READ_BUF>
    wizdata += size;
    1444:	0c 81       	ldd	r16, Y+4	; 0x04
    1446:	1d 81       	ldd	r17, Y+5	; 0x05
    1448:	89 81       	ldd	r24, Y+1	; 0x01
    144a:	9a 81       	ldd	r25, Y+2	; 0x02
    144c:	08 0f       	add	r16, r24
    144e:	19 1f       	adc	r17, r25
    size = len - size;
    1450:	92 01       	movw	r18, r4
    1452:	28 1b       	sub	r18, r24
    1454:	39 0b       	sbc	r19, r25
    1456:	3a 83       	std	Y+2, r19	; 0x02
    1458:	29 83       	std	Y+1, r18	; 0x01
	src_ptr = getSn_RxBASE(sn);
    145a:	8b 81       	ldd	r24, Y+3	; 0x03
    145c:	0e 94 7a 07 	call	0xef4	; 0xef4 <getSn_RxBASE>
    WIZCHIP_READ_BUF(src_ptr, (uint8_t*)wizdata, size);
    1460:	88 27       	eor	r24, r24
    1462:	99 27       	eor	r25, r25
    1464:	29 81       	ldd	r18, Y+1	; 0x01
    1466:	3a 81       	ldd	r19, Y+2	; 0x02
    1468:	a8 01       	movw	r20, r16
    146a:	0e 94 79 06 	call	0xcf2	; 0xcf2 <WIZCHIP_READ_BUF>
    146e:	0a c0       	rjmp	.+20     	; 0x1484 <wiz_recv_data+0x1d4>
  } 
  else
  {
    WIZCHIP_READ_BUF(src_ptr, (uint8_t*)wizdata, len);
    1470:	2e 81       	ldd	r18, Y+6	; 0x06
    1472:	3f 81       	ldd	r19, Y+7	; 0x07
    1474:	b9 01       	movw	r22, r18
    1476:	80 e0       	ldi	r24, 0x00	; 0
    1478:	90 e0       	ldi	r25, 0x00	; 0
    147a:	92 01       	movw	r18, r4
    147c:	4c 81       	ldd	r20, Y+4	; 0x04
    147e:	5d 81       	ldd	r21, Y+5	; 0x05
    1480:	0e 94 79 06 	call	0xcf2	; 0xcf2 <WIZCHIP_READ_BUF>
  }
    
  ptr += len;
    1484:	46 0c       	add	r4, r6
    1486:	57 1c       	adc	r5, r7
  
  setSn_RX_RD(sn, ptr);
    1488:	45 2d       	mov	r20, r5
    148a:	c5 01       	movw	r24, r10
    148c:	b4 01       	movw	r22, r8
    148e:	0e 94 c7 05 	call	0xb8e	; 0xb8e <WIZCHIP_WRITE>
    1492:	44 2d       	mov	r20, r4
    1494:	c7 01       	movw	r24, r14
    1496:	b6 01       	movw	r22, r12
    1498:	0e 94 c7 05 	call	0xb8e	; 0xb8e <WIZCHIP_WRITE>
}
    149c:	2b 96       	adiw	r28, 0x0b	; 11
    149e:	0f b6       	in	r0, 0x3f	; 63
    14a0:	f8 94       	cli
    14a2:	de bf       	out	0x3e, r29	; 62
    14a4:	0f be       	out	0x3f, r0	; 63
    14a6:	cd bf       	out	0x3d, r28	; 61
    14a8:	df 91       	pop	r29
    14aa:	cf 91       	pop	r28
    14ac:	1f 91       	pop	r17
    14ae:	0f 91       	pop	r16
    14b0:	ff 90       	pop	r15
    14b2:	ef 90       	pop	r14
    14b4:	df 90       	pop	r13
    14b6:	cf 90       	pop	r12
    14b8:	bf 90       	pop	r11
    14ba:	af 90       	pop	r10
    14bc:	9f 90       	pop	r9
    14be:	8f 90       	pop	r8
    14c0:	7f 90       	pop	r7
    14c2:	6f 90       	pop	r6
    14c4:	5f 90       	pop	r5
    14c6:	4f 90       	pop	r4
    14c8:	3f 90       	pop	r3
    14ca:	2f 90       	pop	r2
    14cc:	08 95       	ret

000014ce <wizchip_cris_enter>:

void wizchip_gettimeout(wiz_NetTimeout* nettime)
{
   nettime->retry_cnt = getRCR();
   nettime->time_100us = getRTR();
}
    14ce:	08 95       	ret

000014d0 <wizchip_cris_exit>:
    14d0:	08 95       	ret

000014d2 <wizchip_cs_select>:
    14d2:	2a 98       	cbi	0x05, 2	; 5
    14d4:	08 95       	ret

000014d6 <wizchip_cs_deselect>:
    14d6:	2a 9a       	sbi	0x05, 2	; 5
    14d8:	08 95       	ret

000014da <wizchip_bus_readdata>:
    14da:	fb 01       	movw	r30, r22
    14dc:	80 81       	ld	r24, Z
    14de:	08 95       	ret

000014e0 <wizchip_bus_writedata>:
    14e0:	fb 01       	movw	r30, r22
    14e2:	40 83       	st	Z, r20
    14e4:	08 95       	ret

000014e6 <wizchip_spi_readbyte>:
    14e6:	2c 98       	cbi	0x05, 4	; 5
    14e8:	1e bc       	out	0x2e, r1	; 46
    14ea:	0d b4       	in	r0, 0x2d	; 45
    14ec:	07 fe       	sbrs	r0, 7
    14ee:	fd cf       	rjmp	.-6      	; 0x14ea <wizchip_spi_readbyte+0x4>
    14f0:	2c 9a       	sbi	0x05, 4	; 5
    14f2:	8e b5       	in	r24, 0x2e	; 46
    14f4:	08 95       	ret

000014f6 <wiznet_spi_tranceiver>:
    14f6:	2c 98       	cbi	0x05, 4	; 5
    14f8:	8e bd       	out	0x2e, r24	; 46
    14fa:	0d b4       	in	r0, 0x2d	; 45
    14fc:	07 fe       	sbrs	r0, 7
    14fe:	fd cf       	rjmp	.-6      	; 0x14fa <wiznet_spi_tranceiver+0x4>
    1500:	2c 9a       	sbi	0x05, 4	; 5
    1502:	08 95       	ret

00001504 <wizchip_spi_writebyte>:
    1504:	0e 94 7b 0a 	call	0x14f6	; 0x14f6 <wiznet_spi_tranceiver>
    1508:	08 95       	ret

0000150a <debug_uart_transmit>:

// function to send data
void debug_uart_transmit (char data)
{
	/* Wait for empty transmit buffer */
	while ( !( UCSR0A & (1<<UDRE0)) )
    150a:	e0 ec       	ldi	r30, 0xC0	; 192
    150c:	f0 e0       	ldi	r31, 0x00	; 0
    150e:	90 81       	ld	r25, Z
    1510:	95 ff       	sbrs	r25, 5
    1512:	fd cf       	rjmp	.-6      	; 0x150e <debug_uart_transmit+0x4>
	;
	/* Put data into buffer, sends the data */
	UDR0 = data;                                  // load data in the register
    1514:	80 93 c6 00 	sts	0x00C6, r24	; 0x8000c6 <__TEXT_REGION_LENGTH__+0x7e00c6>
    1518:	08 95       	ret

0000151a <debug_uart_transmit_string>:
}


void debug_uart_transmit_string(char *transmitString)
{
    151a:	df 92       	push	r13
    151c:	ef 92       	push	r14
    151e:	ff 92       	push	r15
    1520:	0f 93       	push	r16
    1522:	1f 93       	push	r17
    1524:	cf 93       	push	r28
    1526:	df 93       	push	r29
    1528:	1f 92       	push	r1
    152a:	cd b7       	in	r28, 0x3d	; 61
    152c:	de b7       	in	r29, 0x3e	; 62
	volatile bool EndOfString = false;
    152e:	19 82       	std	Y+1, r1	; 0x01
	int i = 0;
	while ((i<30) && !(EndOfString))
    1530:	29 81       	ldd	r18, Y+1	; 0x01
    1532:	21 11       	cpse	r18, r1
    1534:	1a c0       	rjmp	.+52     	; 0x156a <debug_uart_transmit_string+0x50>
    1536:	7c 01       	movw	r14, r24
    1538:	00 e0       	ldi	r16, 0x00	; 0
    153a:	10 e0       	ldi	r17, 0x00	; 0
			debug_uart_transmit(transmitString[i]);
			i++;
		}
		else
		{
			EndOfString = true;
    153c:	dd 24       	eor	r13, r13
    153e:	d3 94       	inc	r13
{
	volatile bool EndOfString = false;
	int i = 0;
	while ((i<30) && !(EndOfString))
	{
		if (transmitString[i] != '\n')
    1540:	f7 01       	movw	r30, r14
    1542:	e0 0f       	add	r30, r16
    1544:	f1 1f       	adc	r31, r17
    1546:	80 81       	ld	r24, Z
    1548:	8a 30       	cpi	r24, 0x0A	; 10
    154a:	29 f0       	breq	.+10     	; 0x1556 <debug_uart_transmit_string+0x3c>
		{
			debug_uart_transmit(transmitString[i]);
    154c:	0e 94 85 0a 	call	0x150a	; 0x150a <debug_uart_transmit>
			i++;
    1550:	0f 5f       	subi	r16, 0xFF	; 255
    1552:	1f 4f       	sbci	r17, 0xFF	; 255
    1554:	04 c0       	rjmp	.+8      	; 0x155e <debug_uart_transmit_string+0x44>
		}
		else
		{
			EndOfString = true;
    1556:	d9 82       	std	Y+1, r13	; 0x01
			debug_uart_transmit('\n');
    1558:	8a e0       	ldi	r24, 0x0A	; 10
    155a:	0e 94 85 0a 	call	0x150a	; 0x150a <debug_uart_transmit>

void debug_uart_transmit_string(char *transmitString)
{
	volatile bool EndOfString = false;
	int i = 0;
	while ((i<30) && !(EndOfString))
    155e:	0e 31       	cpi	r16, 0x1E	; 30
    1560:	11 05       	cpc	r17, r1
    1562:	1c f4       	brge	.+6      	; 0x156a <debug_uart_transmit_string+0x50>
    1564:	99 81       	ldd	r25, Y+1	; 0x01
    1566:	99 23       	and	r25, r25
    1568:	59 f3       	breq	.-42     	; 0x1540 <debug_uart_transmit_string+0x26>
		{
			EndOfString = true;
			debug_uart_transmit('\n');
		}
	}
}
    156a:	0f 90       	pop	r0
    156c:	df 91       	pop	r29
    156e:	cf 91       	pop	r28
    1570:	1f 91       	pop	r17
    1572:	0f 91       	pop	r16
    1574:	ff 90       	pop	r15
    1576:	ef 90       	pop	r14
    1578:	df 90       	pop	r13
    157a:	08 95       	ret

0000157c <wizchip_setnetinfo>:
}
#endif


void wizchip_setnetinfo(wiz_NetInfo* pnetinfo)
{
    157c:	cf 93       	push	r28
    157e:	df 93       	push	r29
    1580:	ec 01       	movw	r28, r24
	//Debugging
	debug_uart_transmit_string("wizchip_setnetinfo:\n");
    1582:	86 ea       	ldi	r24, 0xA6	; 166
    1584:	91 e0       	ldi	r25, 0x01	; 1
    1586:	0e 94 8d 0a 	call	0x151a	; 0x151a <debug_uart_transmit_string>
	//debug_uart_transmit(pnetinfo->mac[2]);
	//debug_uart_transmit(pnetinfo->mac[3]);
	//debug_uart_transmit(pnetinfo->mac[4]);
	//debug_uart_transmit(pnetinfo->mac[5]);
	//Es scheinen die korrekten Daten drin zu stehen, aber nicht per SPI bertragen zu werden.
   setSHAR(pnetinfo->mac);
    158a:	26 e0       	ldi	r18, 0x06	; 6
    158c:	30 e0       	ldi	r19, 0x00	; 0
    158e:	ae 01       	movw	r20, r28
    1590:	69 e0       	ldi	r22, 0x09	; 9
    1592:	70 e0       	ldi	r23, 0x00	; 0
    1594:	80 e0       	ldi	r24, 0x00	; 0
    1596:	90 e0       	ldi	r25, 0x00	; 0
    1598:	0e 94 1d 06 	call	0xc3a	; 0xc3a <WIZCHIP_WRITE_BUF>
   debug_uart_transmit_string("mac set\n");
    159c:	8b eb       	ldi	r24, 0xBB	; 187
    159e:	91 e0       	ldi	r25, 0x01	; 1
    15a0:	0e 94 8d 0a 	call	0x151a	; 0x151a <debug_uart_transmit_string>
   setGAR(pnetinfo->gw);
    15a4:	ae 01       	movw	r20, r28
    15a6:	42 5f       	subi	r20, 0xF2	; 242
    15a8:	5f 4f       	sbci	r21, 0xFF	; 255
    15aa:	24 e0       	ldi	r18, 0x04	; 4
    15ac:	30 e0       	ldi	r19, 0x00	; 0
    15ae:	61 e0       	ldi	r22, 0x01	; 1
    15b0:	70 e0       	ldi	r23, 0x00	; 0
    15b2:	80 e0       	ldi	r24, 0x00	; 0
    15b4:	90 e0       	ldi	r25, 0x00	; 0
    15b6:	0e 94 1d 06 	call	0xc3a	; 0xc3a <WIZCHIP_WRITE_BUF>
   debug_uart_transmit_string("gw set\n");
    15ba:	84 ec       	ldi	r24, 0xC4	; 196
    15bc:	91 e0       	ldi	r25, 0x01	; 1
    15be:	0e 94 8d 0a 	call	0x151a	; 0x151a <debug_uart_transmit_string>
   setSUBR(pnetinfo->sn);
    15c2:	ae 01       	movw	r20, r28
    15c4:	46 5f       	subi	r20, 0xF6	; 246
    15c6:	5f 4f       	sbci	r21, 0xFF	; 255
    15c8:	24 e0       	ldi	r18, 0x04	; 4
    15ca:	30 e0       	ldi	r19, 0x00	; 0
    15cc:	65 e0       	ldi	r22, 0x05	; 5
    15ce:	70 e0       	ldi	r23, 0x00	; 0
    15d0:	80 e0       	ldi	r24, 0x00	; 0
    15d2:	90 e0       	ldi	r25, 0x00	; 0
    15d4:	0e 94 1d 06 	call	0xc3a	; 0xc3a <WIZCHIP_WRITE_BUF>
   debug_uart_transmit_string("subnet set\n");
    15d8:	8c ec       	ldi	r24, 0xCC	; 204
    15da:	91 e0       	ldi	r25, 0x01	; 1
    15dc:	0e 94 8d 0a 	call	0x151a	; 0x151a <debug_uart_transmit_string>
   setSIPR(pnetinfo->ip);
    15e0:	ae 01       	movw	r20, r28
    15e2:	4a 5f       	subi	r20, 0xFA	; 250
    15e4:	5f 4f       	sbci	r21, 0xFF	; 255
    15e6:	24 e0       	ldi	r18, 0x04	; 4
    15e8:	30 e0       	ldi	r19, 0x00	; 0
    15ea:	6f e0       	ldi	r22, 0x0F	; 15
    15ec:	70 e0       	ldi	r23, 0x00	; 0
    15ee:	80 e0       	ldi	r24, 0x00	; 0
    15f0:	90 e0       	ldi	r25, 0x00	; 0
    15f2:	0e 94 1d 06 	call	0xc3a	; 0xc3a <WIZCHIP_WRITE_BUF>
   debug_uart_transmit_string("ip set\n");
    15f6:	88 ed       	ldi	r24, 0xD8	; 216
    15f8:	91 e0       	ldi	r25, 0x01	; 1
    15fa:	0e 94 8d 0a 	call	0x151a	; 0x151a <debug_uart_transmit_string>
   _DNS_[0] = pnetinfo->dns[0];
    15fe:	ed ea       	ldi	r30, 0xAD	; 173
    1600:	f3 e0       	ldi	r31, 0x03	; 3
    1602:	8a 89       	ldd	r24, Y+18	; 0x12
    1604:	80 83       	st	Z, r24
   _DNS_[1] = pnetinfo->dns[1];
    1606:	8b 89       	ldd	r24, Y+19	; 0x13
    1608:	81 83       	std	Z+1, r24	; 0x01
   _DNS_[2] = pnetinfo->dns[2];
    160a:	8c 89       	ldd	r24, Y+20	; 0x14
    160c:	82 83       	std	Z+2, r24	; 0x02
   _DNS_[3] = pnetinfo->dns[3];
    160e:	8d 89       	ldd	r24, Y+21	; 0x15
    1610:	83 83       	std	Z+3, r24	; 0x03
  // debug_uart_transmit_string("dns set\n");
   _DHCP_   = pnetinfo->dhcp;
    1612:	8e 89       	ldd	r24, Y+22	; 0x16
    1614:	80 93 ac 03 	sts	0x03AC, r24	; 0x8003ac <_DHCP_>
  // debug_uart_transmit_string("dhcp set\n");
}
    1618:	df 91       	pop	r29
    161a:	cf 91       	pop	r28
    161c:	08 95       	ret

0000161e <sendPacket>:
exit:
#if defined(MQTT_TASK)
	MutexUnlock(&c->mutex);
#endif
    return rc;
}
    161e:	8f 92       	push	r8
    1620:	9f 92       	push	r9
    1622:	af 92       	push	r10
    1624:	bf 92       	push	r11
    1626:	cf 92       	push	r12
    1628:	df 92       	push	r13
    162a:	ef 92       	push	r14
    162c:	ff 92       	push	r15
    162e:	0f 93       	push	r16
    1630:	1f 93       	push	r17
    1632:	cf 93       	push	r28
    1634:	df 93       	push	r29
    1636:	7c 01       	movw	r14, r24
    1638:	6b 01       	movw	r12, r22
    163a:	5a 01       	movw	r10, r20
    163c:	16 16       	cp	r1, r22
    163e:	17 06       	cpc	r1, r23
    1640:	1c f1       	brlt	.+70     	; 0x1688 <sendPacket+0x6a>
    1642:	c0 e0       	ldi	r28, 0x00	; 0
    1644:	d0 e0       	ldi	r29, 0x00	; 0
    1646:	27 c0       	rjmp	.+78     	; 0x1696 <sendPacket+0x78>
    1648:	d7 01       	movw	r26, r14
    164a:	97 96       	adiw	r26, 0x27	; 39
    164c:	ed 91       	ld	r30, X+
    164e:	fc 91       	ld	r31, X
    1650:	98 97       	sbiw	r26, 0x28	; 40
    1652:	84 80       	ldd	r8, Z+4	; 0x04
    1654:	95 80       	ldd	r9, Z+5	; 0x05
    1656:	c5 01       	movw	r24, r10
    1658:	0e 94 15 18 	call	0x302a	; 0x302a <TimerLeftMS>
    165c:	8c 01       	movw	r16, r24
    165e:	99 0f       	add	r25, r25
    1660:	22 0b       	sbc	r18, r18
    1662:	33 0b       	sbc	r19, r19
    1664:	f7 01       	movw	r30, r14
    1666:	60 85       	ldd	r22, Z+8	; 0x08
    1668:	71 85       	ldd	r23, Z+9	; 0x09
    166a:	6c 0f       	add	r22, r28
    166c:	7d 1f       	adc	r23, r29
    166e:	a6 01       	movw	r20, r12
    1670:	87 a1       	ldd	r24, Z+39	; 0x27
    1672:	90 a5       	ldd	r25, Z+40	; 0x28
    1674:	f4 01       	movw	r30, r8
    1676:	09 95       	icall
    1678:	99 23       	and	r25, r25
    167a:	6c f0       	brlt	.+26     	; 0x1696 <sendPacket+0x78>
    167c:	c8 0f       	add	r28, r24
    167e:	d9 1f       	adc	r29, r25
    1680:	cc 15       	cp	r28, r12
    1682:	dd 05       	cpc	r29, r13
    1684:	1c f0       	brlt	.+6      	; 0x168c <sendPacket+0x6e>
    1686:	07 c0       	rjmp	.+14     	; 0x1696 <sendPacket+0x78>
    1688:	c0 e0       	ldi	r28, 0x00	; 0
    168a:	d0 e0       	ldi	r29, 0x00	; 0
    168c:	c5 01       	movw	r24, r10
    168e:	0e 94 cf 17 	call	0x2f9e	; 0x2f9e <TimerIsExpired>
    1692:	88 23       	and	r24, r24
    1694:	c9 f2       	breq	.-78     	; 0x1648 <sendPacket+0x2a>
    1696:	cc 16       	cp	r12, r28
    1698:	dd 06       	cpc	r13, r29
    169a:	61 f4       	brne	.+24     	; 0x16b4 <sendPacket+0x96>
    169c:	d7 01       	movw	r26, r14
    169e:	1c 96       	adiw	r26, 0x0c	; 12
    16a0:	6d 91       	ld	r22, X+
    16a2:	7c 91       	ld	r23, X
    16a4:	1d 97       	sbiw	r26, 0x0d	; 13
    16a6:	c7 01       	movw	r24, r14
    16a8:	89 96       	adiw	r24, 0x29	; 41
    16aa:	0e 94 fa 17 	call	0x2ff4	; 0x2ff4 <TimerCountdown>
    16ae:	80 e0       	ldi	r24, 0x00	; 0
    16b0:	90 e0       	ldi	r25, 0x00	; 0
    16b2:	02 c0       	rjmp	.+4      	; 0x16b8 <sendPacket+0x9a>
    16b4:	8f ef       	ldi	r24, 0xFF	; 255
    16b6:	9f ef       	ldi	r25, 0xFF	; 255
    16b8:	df 91       	pop	r29
    16ba:	cf 91       	pop	r28
    16bc:	1f 91       	pop	r17
    16be:	0f 91       	pop	r16
    16c0:	ff 90       	pop	r15
    16c2:	ef 90       	pop	r14
    16c4:	df 90       	pop	r13
    16c6:	cf 90       	pop	r12
    16c8:	bf 90       	pop	r11
    16ca:	af 90       	pop	r10
    16cc:	9f 90       	pop	r9
    16ce:	8f 90       	pop	r8
    16d0:	08 95       	ret

000016d2 <MQTTClientInit>:
    16d2:	cf 92       	push	r12
    16d4:	df 92       	push	r13
    16d6:	ef 92       	push	r14
    16d8:	ff 92       	push	r15
    16da:	0f 93       	push	r16
    16dc:	1f 93       	push	r17
    16de:	fc 01       	movw	r30, r24
    16e0:	70 a7       	std	Z+40, r23	; 0x28
    16e2:	67 a3       	std	Z+39, r22	; 0x27
    16e4:	12 8a       	std	Z+18, r1	; 0x12
    16e6:	11 8a       	std	Z+17, r1	; 0x11
    16e8:	16 8a       	std	Z+22, r1	; 0x16
    16ea:	15 8a       	std	Z+21, r1	; 0x15
    16ec:	12 8e       	std	Z+26, r1	; 0x1a
    16ee:	11 8e       	std	Z+25, r1	; 0x19
    16f0:	16 8e       	std	Z+30, r1	; 0x1e
    16f2:	15 8e       	std	Z+29, r1	; 0x1d
    16f4:	12 a2       	std	Z+34, r1	; 0x22
    16f6:	11 a2       	std	Z+33, r1	; 0x21
    16f8:	53 83       	std	Z+3, r21	; 0x03
    16fa:	42 83       	std	Z+2, r20	; 0x02
    16fc:	31 87       	std	Z+9, r19	; 0x09
    16fe:	20 87       	std	Z+8, r18	; 0x08
    1700:	15 83       	std	Z+5, r17	; 0x05
    1702:	04 83       	std	Z+4, r16	; 0x04
    1704:	f3 86       	std	Z+11, r15	; 0x0b
    1706:	e2 86       	std	Z+10, r14	; 0x0a
    1708:	d7 82       	std	Z+7, r13	; 0x07
    170a:	c6 82       	std	Z+6, r12	; 0x06
    170c:	10 8a       	std	Z+16, r1	; 0x10
    170e:	17 86       	std	Z+15, r1	; 0x0f
    1710:	16 86       	std	Z+14, r1	; 0x0e
    1712:	16 a2       	std	Z+38, r1	; 0x26
    1714:	15 a2       	std	Z+37, r1	; 0x25
    1716:	81 e0       	ldi	r24, 0x01	; 1
    1718:	90 e0       	ldi	r25, 0x00	; 0
    171a:	91 83       	std	Z+1, r25	; 0x01
    171c:	80 83       	st	Z, r24
    171e:	cf 01       	movw	r24, r30
    1720:	89 96       	adiw	r24, 0x29	; 41
    1722:	0e 94 c9 17 	call	0x2f92	; 0x2f92 <TimerInit>
    1726:	1f 91       	pop	r17
    1728:	0f 91       	pop	r16
    172a:	ff 90       	pop	r15
    172c:	ef 90       	pop	r14
    172e:	df 90       	pop	r13
    1730:	cf 90       	pop	r12
    1732:	08 95       	ret

00001734 <deliverMessage>:
    1734:	2f 92       	push	r2
    1736:	3f 92       	push	r3
    1738:	4f 92       	push	r4
    173a:	5f 92       	push	r5
    173c:	6f 92       	push	r6
    173e:	7f 92       	push	r7
    1740:	8f 92       	push	r8
    1742:	9f 92       	push	r9
    1744:	af 92       	push	r10
    1746:	bf 92       	push	r11
    1748:	cf 92       	push	r12
    174a:	df 92       	push	r13
    174c:	ef 92       	push	r14
    174e:	ff 92       	push	r15
    1750:	0f 93       	push	r16
    1752:	1f 93       	push	r17
    1754:	cf 93       	push	r28
    1756:	df 93       	push	r29
    1758:	00 d0       	rcall	.+0      	; 0x175a <deliverMessage+0x26>
    175a:	00 d0       	rcall	.+0      	; 0x175c <deliverMessage+0x28>
    175c:	cd b7       	in	r28, 0x3d	; 61
    175e:	de b7       	in	r29, 0x3e	; 62
    1760:	3c 01       	movw	r6, r24
    1762:	6b 01       	movw	r12, r22
    1764:	2a 01       	movw	r4, r20
    1766:	8c 01       	movw	r16, r24
    1768:	5c 01       	movw	r10, r24
    176a:	84 e1       	ldi	r24, 0x14	; 20
    176c:	a8 0e       	add	r10, r24
    176e:	b1 1c       	adc	r11, r1
    1770:	ee 24       	eor	r14, r14
    1772:	ea 94       	dec	r14
    1774:	fe 2c       	mov	r15, r14
    1776:	31 2c       	mov	r3, r1
    1778:	21 2c       	mov	r2, r1
    177a:	48 01       	movw	r8, r16
    177c:	d8 01       	movw	r26, r16
    177e:	51 96       	adiw	r26, 0x11	; 17
    1780:	6d 91       	ld	r22, X+
    1782:	7c 91       	ld	r23, X
    1784:	52 97       	sbiw	r26, 0x12	; 18
    1786:	61 15       	cp	r22, r1
    1788:	71 05       	cpc	r23, r1
    178a:	09 f4       	brne	.+2      	; 0x178e <deliverMessage+0x5a>
    178c:	63 c0       	rjmp	.+198    	; 0x1854 <deliverMessage+0x120>
    178e:	c6 01       	movw	r24, r12
    1790:	0e 94 03 15 	call	0x2a06	; 0x2a06 <MQTTPacket_equals>
    1794:	89 2b       	or	r24, r25
    1796:	09 f0       	breq	.+2      	; 0x179a <deliverMessage+0x66>
    1798:	4d c0       	rjmp	.+154    	; 0x1834 <deliverMessage+0x100>
    179a:	f8 01       	movw	r30, r16
    179c:	81 89       	ldd	r24, Z+17	; 0x11
    179e:	92 89       	ldd	r25, Z+18	; 0x12
    17a0:	d6 01       	movw	r26, r12
    17a2:	14 96       	adiw	r26, 0x04	; 4
    17a4:	ed 91       	ld	r30, X+
    17a6:	fc 91       	ld	r31, X
    17a8:	15 97       	sbiw	r26, 0x05	; 5
    17aa:	12 96       	adiw	r26, 0x02	; 2
    17ac:	2d 91       	ld	r18, X+
    17ae:	3c 91       	ld	r19, X
    17b0:	13 97       	sbiw	r26, 0x03	; 3
    17b2:	2e 0f       	add	r18, r30
    17b4:	3f 1f       	adc	r19, r31
    17b6:	dc 01       	movw	r26, r24
    17b8:	4c 91       	ld	r20, X
    17ba:	44 23       	and	r20, r20
    17bc:	09 f4       	brne	.+2      	; 0x17c0 <deliverMessage+0x8c>
    17be:	6e c0       	rjmp	.+220    	; 0x189c <deliverMessage+0x168>
    17c0:	e2 17       	cp	r30, r18
    17c2:	f3 07       	cpc	r31, r19
    17c4:	08 f0       	brcs	.+2      	; 0x17c8 <deliverMessage+0x94>
    17c6:	46 c0       	rjmp	.+140    	; 0x1854 <deliverMessage+0x120>
    17c8:	11 96       	adiw	r26, 0x01	; 1
    17ca:	c9 01       	movw	r24, r18
    17cc:	01 97       	sbiw	r24, 0x01	; 1
    17ce:	01 c0       	rjmp	.+2      	; 0x17d2 <deliverMessage+0x9e>
    17d0:	11 96       	adiw	r26, 0x01	; 1
    17d2:	50 81       	ld	r21, Z
    17d4:	5f 32       	cpi	r21, 0x2F	; 47
    17d6:	19 f4       	brne	.+6      	; 0x17de <deliverMessage+0xaa>
    17d8:	4f 32       	cpi	r20, 0x2F	; 47
    17da:	f9 f0       	breq	.+62     	; 0x181a <deliverMessage+0xe6>
    17dc:	26 c0       	rjmp	.+76     	; 0x182a <deliverMessage+0xf6>
    17de:	4b 32       	cpi	r20, 0x2B	; 43
    17e0:	29 f0       	breq	.+10     	; 0x17ec <deliverMessage+0xb8>
    17e2:	43 32       	cpi	r20, 0x23	; 35
    17e4:	b1 f0       	breq	.+44     	; 0x1812 <deliverMessage+0xde>
    17e6:	54 17       	cp	r21, r20
    17e8:	c1 f0       	breq	.+48     	; 0x181a <deliverMessage+0xe6>
    17ea:	1f c0       	rjmp	.+62     	; 0x182a <deliverMessage+0xf6>
    17ec:	af 01       	movw	r20, r30
    17ee:	4f 5f       	subi	r20, 0xFF	; 255
    17f0:	5f 4f       	sbci	r21, 0xFF	; 255
    17f2:	42 17       	cp	r20, r18
    17f4:	53 07       	cpc	r21, r19
    17f6:	08 f0       	brcs	.+2      	; 0x17fa <deliverMessage+0xc6>
    17f8:	4d c0       	rjmp	.+154    	; 0x1894 <deliverMessage+0x160>
    17fa:	41 81       	ldd	r20, Z+1	; 0x01
    17fc:	4f 32       	cpi	r20, 0x2F	; 47
    17fe:	09 f4       	brne	.+2      	; 0x1802 <deliverMessage+0xce>
    1800:	44 c0       	rjmp	.+136    	; 0x188a <deliverMessage+0x156>
    1802:	31 96       	adiw	r30, 0x01	; 1
    1804:	e8 17       	cp	r30, r24
    1806:	f9 07       	cpc	r31, r25
    1808:	39 f0       	breq	.+14     	; 0x1818 <deliverMessage+0xe4>
    180a:	41 81       	ldd	r20, Z+1	; 0x01
    180c:	4f 32       	cpi	r20, 0x2F	; 47
    180e:	c9 f7       	brne	.-14     	; 0x1802 <deliverMessage+0xce>
    1810:	3c c0       	rjmp	.+120    	; 0x188a <deliverMessage+0x156>
    1812:	f9 01       	movw	r30, r18
    1814:	31 97       	sbiw	r30, 0x01	; 1
    1816:	01 c0       	rjmp	.+2      	; 0x181a <deliverMessage+0xe6>
    1818:	fc 01       	movw	r30, r24
    181a:	31 96       	adiw	r30, 0x01	; 1
    181c:	4c 91       	ld	r20, X
    181e:	44 23       	and	r20, r20
    1820:	e9 f1       	breq	.+122    	; 0x189c <deliverMessage+0x168>
    1822:	e2 17       	cp	r30, r18
    1824:	f3 07       	cpc	r31, r19
    1826:	a0 f2       	brcs	.-88     	; 0x17d0 <deliverMessage+0x9c>
    1828:	15 c0       	rjmp	.+42     	; 0x1854 <deliverMessage+0x120>
    182a:	2e 17       	cp	r18, r30
    182c:	3f 07       	cpc	r19, r31
    182e:	91 f4       	brne	.+36     	; 0x1854 <deliverMessage+0x120>
    1830:	41 11       	cpse	r20, r1
    1832:	10 c0       	rjmp	.+32     	; 0x1854 <deliverMessage+0x120>
    1834:	d4 01       	movw	r26, r8
    1836:	53 96       	adiw	r26, 0x13	; 19
    1838:	ed 91       	ld	r30, X+
    183a:	fc 91       	ld	r31, X
    183c:	54 97       	sbiw	r26, 0x14	; 20
    183e:	30 97       	sbiw	r30, 0x00	; 0
    1840:	49 f0       	breq	.+18     	; 0x1854 <deliverMessage+0x120>
    1842:	dc 82       	std	Y+4, r13	; 0x04
    1844:	cb 82       	std	Y+3, r12	; 0x03
    1846:	5a 82       	std	Y+2, r5	; 0x02
    1848:	49 82       	std	Y+1, r4	; 0x01
    184a:	ce 01       	movw	r24, r28
    184c:	01 96       	adiw	r24, 0x01	; 1
    184e:	09 95       	icall
    1850:	e3 2c       	mov	r14, r3
    1852:	f2 2c       	mov	r15, r2
    1854:	0c 5f       	subi	r16, 0xFC	; 252
    1856:	1f 4f       	sbci	r17, 0xFF	; 255
    1858:	0a 15       	cp	r16, r10
    185a:	1b 05       	cpc	r17, r11
    185c:	09 f0       	breq	.+2      	; 0x1860 <deliverMessage+0x12c>
    185e:	8d cf       	rjmp	.-230    	; 0x177a <deliverMessage+0x46>
    1860:	bf ef       	ldi	r27, 0xFF	; 255
    1862:	eb 16       	cp	r14, r27
    1864:	fb 06       	cpc	r15, r27
    1866:	f1 f4       	brne	.+60     	; 0x18a4 <deliverMessage+0x170>
    1868:	d3 01       	movw	r26, r6
    186a:	95 96       	adiw	r26, 0x25	; 37
    186c:	ed 91       	ld	r30, X+
    186e:	fc 91       	ld	r31, X
    1870:	96 97       	sbiw	r26, 0x26	; 38
    1872:	30 97       	sbiw	r30, 0x00	; 0
    1874:	b9 f0       	breq	.+46     	; 0x18a4 <deliverMessage+0x170>
    1876:	dc 82       	std	Y+4, r13	; 0x04
    1878:	cb 82       	std	Y+3, r12	; 0x03
    187a:	5a 82       	std	Y+2, r5	; 0x02
    187c:	49 82       	std	Y+1, r4	; 0x01
    187e:	ce 01       	movw	r24, r28
    1880:	01 96       	adiw	r24, 0x01	; 1
    1882:	09 95       	icall
    1884:	e1 2c       	mov	r14, r1
    1886:	f1 2c       	mov	r15, r1
    1888:	0d c0       	rjmp	.+26     	; 0x18a4 <deliverMessage+0x170>
    188a:	31 96       	adiw	r30, 0x01	; 1
    188c:	4c 91       	ld	r20, X
    188e:	41 11       	cpse	r20, r1
    1890:	9f cf       	rjmp	.-194    	; 0x17d0 <deliverMessage+0x9c>
    1892:	04 c0       	rjmp	.+8      	; 0x189c <deliverMessage+0x168>
    1894:	31 96       	adiw	r30, 0x01	; 1
    1896:	8c 91       	ld	r24, X
    1898:	81 11       	cpse	r24, r1
    189a:	dc cf       	rjmp	.-72     	; 0x1854 <deliverMessage+0x120>
    189c:	2e 17       	cp	r18, r30
    189e:	3f 07       	cpc	r19, r31
    18a0:	c9 f6       	brne	.-78     	; 0x1854 <deliverMessage+0x120>
    18a2:	c8 cf       	rjmp	.-112    	; 0x1834 <deliverMessage+0x100>
    18a4:	c7 01       	movw	r24, r14
    18a6:	0f 90       	pop	r0
    18a8:	0f 90       	pop	r0
    18aa:	0f 90       	pop	r0
    18ac:	0f 90       	pop	r0
    18ae:	df 91       	pop	r29
    18b0:	cf 91       	pop	r28
    18b2:	1f 91       	pop	r17
    18b4:	0f 91       	pop	r16
    18b6:	ff 90       	pop	r15
    18b8:	ef 90       	pop	r14
    18ba:	df 90       	pop	r13
    18bc:	cf 90       	pop	r12
    18be:	bf 90       	pop	r11
    18c0:	af 90       	pop	r10
    18c2:	9f 90       	pop	r9
    18c4:	8f 90       	pop	r8
    18c6:	7f 90       	pop	r7
    18c8:	6f 90       	pop	r6
    18ca:	5f 90       	pop	r5
    18cc:	4f 90       	pop	r4
    18ce:	3f 90       	pop	r3
    18d0:	2f 90       	pop	r2
    18d2:	08 95       	ret

000018d4 <keepalive>:
    18d4:	0f 93       	push	r16
    18d6:	1f 93       	push	r17
    18d8:	cf 93       	push	r28
    18da:	df 93       	push	r29
    18dc:	cd b7       	in	r28, 0x3d	; 61
    18de:	de b7       	in	r29, 0x3e	; 62
    18e0:	28 97       	sbiw	r28, 0x08	; 8
    18e2:	0f b6       	in	r0, 0x3f	; 63
    18e4:	f8 94       	cli
    18e6:	de bf       	out	0x3e, r29	; 62
    18e8:	0f be       	out	0x3f, r0	; 63
    18ea:	cd bf       	out	0x3d, r28	; 61
    18ec:	fc 01       	movw	r30, r24
    18ee:	24 85       	ldd	r18, Z+12	; 0x0c
    18f0:	35 85       	ldd	r19, Z+13	; 0x0d
    18f2:	23 2b       	or	r18, r19
    18f4:	71 f1       	breq	.+92     	; 0x1952 <keepalive+0x7e>
    18f6:	8c 01       	movw	r16, r24
    18f8:	89 96       	adiw	r24, 0x29	; 41
    18fa:	0e 94 cf 17 	call	0x2f9e	; 0x2f9e <TimerIsExpired>
    18fe:	88 23       	and	r24, r24
    1900:	59 f1       	breq	.+86     	; 0x1958 <keepalive+0x84>
    1902:	f8 01       	movw	r30, r16
    1904:	86 85       	ldd	r24, Z+14	; 0x0e
    1906:	81 11       	cpse	r24, r1
    1908:	2a c0       	rjmp	.+84     	; 0x195e <keepalive+0x8a>
    190a:	ce 01       	movw	r24, r28
    190c:	01 96       	adiw	r24, 0x01	; 1
    190e:	0e 94 c9 17 	call	0x2f92	; 0x2f92 <TimerInit>
    1912:	68 ee       	ldi	r22, 0xE8	; 232
    1914:	73 e0       	ldi	r23, 0x03	; 3
    1916:	ce 01       	movw	r24, r28
    1918:	01 96       	adiw	r24, 0x01	; 1
    191a:	0e 94 e7 17 	call	0x2fce	; 0x2fce <TimerCountdownMS>
    191e:	f8 01       	movw	r30, r16
    1920:	64 81       	ldd	r22, Z+4	; 0x04
    1922:	75 81       	ldd	r23, Z+5	; 0x05
    1924:	80 85       	ldd	r24, Z+8	; 0x08
    1926:	91 85       	ldd	r25, Z+9	; 0x09
    1928:	0e 94 85 12 	call	0x250a	; 0x250a <MQTTSerialize_pingreq>
    192c:	18 16       	cp	r1, r24
    192e:	19 06       	cpc	r1, r25
    1930:	6c f4       	brge	.+26     	; 0x194c <keepalive+0x78>
    1932:	ae 01       	movw	r20, r28
    1934:	4f 5f       	subi	r20, 0xFF	; 255
    1936:	5f 4f       	sbci	r21, 0xFF	; 255
    1938:	bc 01       	movw	r22, r24
    193a:	c8 01       	movw	r24, r16
    193c:	0e 94 0f 0b 	call	0x161e	; 0x161e <sendPacket>
    1940:	00 97       	sbiw	r24, 0x00	; 0
    1942:	79 f4       	brne	.+30     	; 0x1962 <keepalive+0x8e>
    1944:	21 e0       	ldi	r18, 0x01	; 1
    1946:	f8 01       	movw	r30, r16
    1948:	26 87       	std	Z+14, r18	; 0x0e
    194a:	0b c0       	rjmp	.+22     	; 0x1962 <keepalive+0x8e>
    194c:	8f ef       	ldi	r24, 0xFF	; 255
    194e:	9f ef       	ldi	r25, 0xFF	; 255
    1950:	08 c0       	rjmp	.+16     	; 0x1962 <keepalive+0x8e>
    1952:	80 e0       	ldi	r24, 0x00	; 0
    1954:	90 e0       	ldi	r25, 0x00	; 0
    1956:	05 c0       	rjmp	.+10     	; 0x1962 <keepalive+0x8e>
    1958:	8f ef       	ldi	r24, 0xFF	; 255
    195a:	9f ef       	ldi	r25, 0xFF	; 255
    195c:	02 c0       	rjmp	.+4      	; 0x1962 <keepalive+0x8e>
    195e:	8f ef       	ldi	r24, 0xFF	; 255
    1960:	9f ef       	ldi	r25, 0xFF	; 255
    1962:	28 96       	adiw	r28, 0x08	; 8
    1964:	0f b6       	in	r0, 0x3f	; 63
    1966:	f8 94       	cli
    1968:	de bf       	out	0x3e, r29	; 62
    196a:	0f be       	out	0x3f, r0	; 63
    196c:	cd bf       	out	0x3d, r28	; 61
    196e:	df 91       	pop	r29
    1970:	cf 91       	pop	r28
    1972:	1f 91       	pop	r17
    1974:	0f 91       	pop	r16
    1976:	08 95       	ret

00001978 <cycle>:
    1978:	2f 92       	push	r2
    197a:	3f 92       	push	r3
    197c:	4f 92       	push	r4
    197e:	5f 92       	push	r5
    1980:	6f 92       	push	r6
    1982:	7f 92       	push	r7
    1984:	8f 92       	push	r8
    1986:	9f 92       	push	r9
    1988:	af 92       	push	r10
    198a:	bf 92       	push	r11
    198c:	cf 92       	push	r12
    198e:	df 92       	push	r13
    1990:	ef 92       	push	r14
    1992:	ff 92       	push	r15
    1994:	0f 93       	push	r16
    1996:	1f 93       	push	r17
    1998:	cf 93       	push	r28
    199a:	df 93       	push	r29
    199c:	cd b7       	in	r28, 0x3d	; 61
    199e:	de b7       	in	r29, 0x3e	; 62
    19a0:	61 97       	sbiw	r28, 0x11	; 17
    19a2:	0f b6       	in	r0, 0x3f	; 63
    19a4:	f8 94       	cli
    19a6:	de bf       	out	0x3e, r29	; 62
    19a8:	0f be       	out	0x3f, r0	; 63
    19aa:	cd bf       	out	0x3d, r28	; 61
    19ac:	3c 01       	movw	r6, r24
    19ae:	2b 01       	movw	r4, r22
    19b0:	dc 01       	movw	r26, r24
    19b2:	97 96       	adiw	r26, 0x27	; 39
    19b4:	ed 91       	ld	r30, X+
    19b6:	fc 91       	ld	r31, X
    19b8:	98 97       	sbiw	r26, 0x28	; 40
    19ba:	e2 80       	ldd	r14, Z+2	; 0x02
    19bc:	f3 80       	ldd	r15, Z+3	; 0x03
    19be:	cb 01       	movw	r24, r22
    19c0:	0e 94 15 18 	call	0x302a	; 0x302a <TimerLeftMS>
    19c4:	8c 01       	movw	r16, r24
    19c6:	99 0f       	add	r25, r25
    19c8:	22 0b       	sbc	r18, r18
    19ca:	33 0b       	sbc	r19, r19
    19cc:	f3 01       	movw	r30, r6
    19ce:	62 85       	ldd	r22, Z+10	; 0x0a
    19d0:	73 85       	ldd	r23, Z+11	; 0x0b
    19d2:	41 e0       	ldi	r20, 0x01	; 1
    19d4:	50 e0       	ldi	r21, 0x00	; 0
    19d6:	87 a1       	ldd	r24, Z+39	; 0x27
    19d8:	90 a5       	ldd	r25, Z+40	; 0x28
    19da:	f7 01       	movw	r30, r14
    19dc:	09 95       	icall
    19de:	01 97       	sbiw	r24, 0x01	; 1
    19e0:	09 f0       	breq	.+2      	; 0x19e4 <cycle+0x6c>
    19e2:	0f c1       	rjmp	.+542    	; 0x1c02 <cycle+0x28a>
    19e4:	c2 01       	movw	r24, r4
    19e6:	0e 94 15 18 	call	0x302a	; 0x302a <TimerLeftMS>
    19ea:	68 94       	set
    19ec:	cc 24       	eor	r12, r12
    19ee:	c2 f8       	bld	r12, 2
    19f0:	d1 2c       	mov	r13, r1
    19f2:	e1 2c       	mov	r14, r1
    19f4:	f1 2c       	mov	r15, r1
    19f6:	22 24       	eor	r2, r2
    19f8:	23 94       	inc	r2
    19fa:	31 2c       	mov	r3, r1
    19fc:	4c 01       	movw	r8, r24
    19fe:	99 0f       	add	r25, r25
    1a00:	aa 08       	sbc	r10, r10
    1a02:	bb 08       	sbc	r11, r11
    1a04:	04 c0       	rjmp	.+8      	; 0x1a0e <cycle+0x96>
    1a06:	f1 e0       	ldi	r31, 0x01	; 1
    1a08:	cf 1a       	sub	r12, r31
    1a0a:	d1 08       	sbc	r13, r1
    1a0c:	29 f1       	breq	.+74     	; 0x1a58 <cycle+0xe0>
    1a0e:	d3 01       	movw	r26, r6
    1a10:	97 96       	adiw	r26, 0x27	; 39
    1a12:	8d 91       	ld	r24, X+
    1a14:	9c 91       	ld	r25, X
    1a16:	98 97       	sbiw	r26, 0x28	; 40
    1a18:	dc 01       	movw	r26, r24
    1a1a:	12 96       	adiw	r26, 0x02	; 2
    1a1c:	ed 91       	ld	r30, X+
    1a1e:	fc 91       	ld	r31, X
    1a20:	13 97       	sbiw	r26, 0x03	; 3
    1a22:	95 01       	movw	r18, r10
    1a24:	84 01       	movw	r16, r8
    1a26:	41 e0       	ldi	r20, 0x01	; 1
    1a28:	50 e0       	ldi	r21, 0x00	; 0
    1a2a:	be 01       	movw	r22, r28
    1a2c:	6f 5f       	subi	r22, 0xFF	; 255
    1a2e:	7f 4f       	sbci	r23, 0xFF	; 255
    1a30:	09 95       	icall
    1a32:	01 97       	sbiw	r24, 0x01	; 1
    1a34:	89 f4       	brne	.+34     	; 0x1a58 <cycle+0xe0>
    1a36:	89 81       	ldd	r24, Y+1	; 0x01
    1a38:	98 2f       	mov	r25, r24
    1a3a:	9f 77       	andi	r25, 0x7F	; 127
    1a3c:	92 9d       	mul	r25, r2
    1a3e:	90 01       	movw	r18, r0
    1a40:	93 9d       	mul	r25, r3
    1a42:	30 0d       	add	r19, r0
    1a44:	11 24       	eor	r1, r1
    1a46:	e2 0e       	add	r14, r18
    1a48:	f3 1e       	adc	r15, r19
    1a4a:	36 94       	lsr	r3
    1a4c:	32 2c       	mov	r3, r2
    1a4e:	22 24       	eor	r2, r2
    1a50:	37 94       	ror	r3
    1a52:	27 94       	ror	r2
    1a54:	88 23       	and	r24, r24
    1a56:	bc f2       	brlt	.-82     	; 0x1a06 <cycle+0x8e>
    1a58:	f3 01       	movw	r30, r6
    1a5a:	82 85       	ldd	r24, Z+10	; 0x0a
    1a5c:	93 85       	ldd	r25, Z+11	; 0x0b
    1a5e:	b7 01       	movw	r22, r14
    1a60:	01 96       	adiw	r24, 0x01	; 1
    1a62:	0e 94 74 13 	call	0x26e8	; 0x26e8 <MQTTPacket_encode>
    1a66:	6c 01       	movw	r12, r24
    1a68:	1e 14       	cp	r1, r14
    1a6a:	1f 04       	cpc	r1, r15
    1a6c:	fc f4       	brge	.+62     	; 0x1aac <cycle+0x134>
    1a6e:	d3 01       	movw	r26, r6
    1a70:	97 96       	adiw	r26, 0x27	; 39
    1a72:	ed 91       	ld	r30, X+
    1a74:	fc 91       	ld	r31, X
    1a76:	98 97       	sbiw	r26, 0x28	; 40
    1a78:	a2 80       	ldd	r10, Z+2	; 0x02
    1a7a:	b3 80       	ldd	r11, Z+3	; 0x03
    1a7c:	c2 01       	movw	r24, r4
    1a7e:	0e 94 15 18 	call	0x302a	; 0x302a <TimerLeftMS>
    1a82:	8c 01       	movw	r16, r24
    1a84:	99 0f       	add	r25, r25
    1a86:	22 0b       	sbc	r18, r18
    1a88:	33 0b       	sbc	r19, r19
    1a8a:	bf ef       	ldi	r27, 0xFF	; 255
    1a8c:	cb 1a       	sub	r12, r27
    1a8e:	db 0a       	sbc	r13, r27
    1a90:	f3 01       	movw	r30, r6
    1a92:	62 85       	ldd	r22, Z+10	; 0x0a
    1a94:	73 85       	ldd	r23, Z+11	; 0x0b
    1a96:	6c 0d       	add	r22, r12
    1a98:	7d 1d       	adc	r23, r13
    1a9a:	a7 01       	movw	r20, r14
    1a9c:	87 a1       	ldd	r24, Z+39	; 0x27
    1a9e:	90 a5       	ldd	r25, Z+40	; 0x28
    1aa0:	f5 01       	movw	r30, r10
    1aa2:	09 95       	icall
    1aa4:	8e 15       	cp	r24, r14
    1aa6:	9f 05       	cpc	r25, r15
    1aa8:	09 f0       	breq	.+2      	; 0x1aac <cycle+0x134>
    1aaa:	ab c0       	rjmp	.+342    	; 0x1c02 <cycle+0x28a>
    1aac:	d3 01       	movw	r26, r6
    1aae:	1a 96       	adiw	r26, 0x0a	; 10
    1ab0:	ed 91       	ld	r30, X+
    1ab2:	fc 91       	ld	r31, X
    1ab4:	1b 97       	sbiw	r26, 0x0b	; 11
    1ab6:	80 81       	ld	r24, Z
    1ab8:	82 95       	swap	r24
    1aba:	8f 70       	andi	r24, 0x0F	; 15
    1abc:	28 2e       	mov	r2, r24
    1abe:	31 2c       	mov	r3, r1
    1ac0:	85 30       	cpi	r24, 0x05	; 5
    1ac2:	09 f4       	brne	.+2      	; 0x1ac6 <cycle+0x14e>
    1ac4:	65 c0       	rjmp	.+202    	; 0x1b90 <cycle+0x218>
    1ac6:	8d 30       	cpi	r24, 0x0D	; 13
    1ac8:	09 f4       	brne	.+2      	; 0x1acc <cycle+0x154>
    1aca:	8b c0       	rjmp	.+278    	; 0x1be2 <cycle+0x26a>
    1acc:	83 30       	cpi	r24, 0x03	; 3
    1ace:	09 f0       	breq	.+2      	; 0x1ad2 <cycle+0x15a>
    1ad0:	8e c0       	rjmp	.+284    	; 0x1bee <cycle+0x276>
    1ad2:	16 96       	adiw	r26, 0x06	; 6
    1ad4:	8d 90       	ld	r8, X+
    1ad6:	9c 90       	ld	r9, X
    1ad8:	17 97       	sbiw	r26, 0x07	; 7
    1ada:	5f 01       	movw	r10, r30
    1adc:	fe 01       	movw	r30, r28
    1ade:	38 96       	adiw	r30, 0x08	; 8
    1ae0:	6f 01       	movw	r12, r30
    1ae2:	ce 01       	movw	r24, r28
    1ae4:	06 96       	adiw	r24, 0x06	; 6
    1ae6:	7c 01       	movw	r14, r24
    1ae8:	8e 01       	movw	r16, r28
    1aea:	06 5f       	subi	r16, 0xF6	; 246
    1aec:	1f 4f       	sbci	r17, 0xFF	; 255
    1aee:	9e 01       	movw	r18, r28
    1af0:	2c 5f       	subi	r18, 0xFC	; 252
    1af2:	3f 4f       	sbci	r19, 0xFF	; 255
    1af4:	ae 01       	movw	r20, r28
    1af6:	4e 5f       	subi	r20, 0xFE	; 254
    1af8:	5f 4f       	sbci	r21, 0xFF	; 255
    1afa:	be 01       	movw	r22, r28
    1afc:	60 5f       	subi	r22, 0xF0	; 240
    1afe:	7f 4f       	sbci	r23, 0xFF	; 255
    1b00:	03 97       	sbiw	r24, 0x03	; 3
    1b02:	0e 94 89 12 	call	0x2512	; 0x2512 <MQTTDeserialize_publish>
    1b06:	01 97       	sbiw	r24, 0x01	; 1
    1b08:	b9 f5       	brne	.+110    	; 0x1b78 <cycle+0x200>
    1b0a:	88 89       	ldd	r24, Y+16	; 0x10
    1b0c:	89 83       	std	Y+1, r24	; 0x01
    1b0e:	ae 01       	movw	r20, r28
    1b10:	4f 5f       	subi	r20, 0xFF	; 255
    1b12:	5f 4f       	sbci	r21, 0xFF	; 255
    1b14:	b8 01       	movw	r22, r16
    1b16:	c3 01       	movw	r24, r6
    1b18:	0e 94 9a 0b 	call	0x1734	; 0x1734 <deliverMessage>
    1b1c:	89 81       	ldd	r24, Y+1	; 0x01
    1b1e:	88 23       	and	r24, r24
    1b20:	a1 f1       	breq	.+104    	; 0x1b8a <cycle+0x212>
    1b22:	81 30       	cpi	r24, 0x01	; 1
    1b24:	81 f4       	brne	.+32     	; 0x1b46 <cycle+0x1ce>
    1b26:	0c 81       	ldd	r16, Y+4	; 0x04
    1b28:	1d 81       	ldd	r17, Y+5	; 0x05
    1b2a:	d3 01       	movw	r26, r6
    1b2c:	14 96       	adiw	r26, 0x04	; 4
    1b2e:	6d 91       	ld	r22, X+
    1b30:	7c 91       	ld	r23, X
    1b32:	15 97       	sbiw	r26, 0x05	; 5
    1b34:	20 e0       	ldi	r18, 0x00	; 0
    1b36:	44 e0       	ldi	r20, 0x04	; 4
    1b38:	18 96       	adiw	r26, 0x08	; 8
    1b3a:	8d 91       	ld	r24, X+
    1b3c:	9c 91       	ld	r25, X
    1b3e:	19 97       	sbiw	r26, 0x09	; 9
    1b40:	0e 94 e7 15 	call	0x2bce	; 0x2bce <MQTTSerialize_ack>
    1b44:	0d c0       	rjmp	.+26     	; 0x1b60 <cycle+0x1e8>
    1b46:	82 30       	cpi	r24, 0x02	; 2
    1b48:	d1 f4       	brne	.+52     	; 0x1b7e <cycle+0x206>
    1b4a:	0c 81       	ldd	r16, Y+4	; 0x04
    1b4c:	1d 81       	ldd	r17, Y+5	; 0x05
    1b4e:	f3 01       	movw	r30, r6
    1b50:	64 81       	ldd	r22, Z+4	; 0x04
    1b52:	75 81       	ldd	r23, Z+5	; 0x05
    1b54:	20 e0       	ldi	r18, 0x00	; 0
    1b56:	45 e0       	ldi	r20, 0x05	; 5
    1b58:	80 85       	ldd	r24, Z+8	; 0x08
    1b5a:	91 85       	ldd	r25, Z+9	; 0x09
    1b5c:	0e 94 e7 15 	call	0x2bce	; 0x2bce <MQTTSerialize_ack>
    1b60:	18 16       	cp	r1, r24
    1b62:	19 06       	cpc	r1, r25
    1b64:	7c f4       	brge	.+30     	; 0x1b84 <cycle+0x20c>
    1b66:	a2 01       	movw	r20, r4
    1b68:	bc 01       	movw	r22, r24
    1b6a:	c3 01       	movw	r24, r6
    1b6c:	0e 94 0f 0b 	call	0x161e	; 0x161e <sendPacket>
    1b70:	8c 01       	movw	r16, r24
    1b72:	01 96       	adiw	r24, 0x01	; 1
    1b74:	f1 f5       	brne	.+124    	; 0x1bf2 <cycle+0x27a>
    1b76:	40 c0       	rjmp	.+128    	; 0x1bf8 <cycle+0x280>
    1b78:	00 e0       	ldi	r16, 0x00	; 0
    1b7a:	10 e0       	ldi	r17, 0x00	; 0
    1b7c:	3d c0       	rjmp	.+122    	; 0x1bf8 <cycle+0x280>
    1b7e:	0f ef       	ldi	r16, 0xFF	; 255
    1b80:	1f ef       	ldi	r17, 0xFF	; 255
    1b82:	3a c0       	rjmp	.+116    	; 0x1bf8 <cycle+0x280>
    1b84:	0f ef       	ldi	r16, 0xFF	; 255
    1b86:	1f ef       	ldi	r17, 0xFF	; 255
    1b88:	37 c0       	rjmp	.+110    	; 0x1bf8 <cycle+0x280>
    1b8a:	00 e0       	ldi	r16, 0x00	; 0
    1b8c:	10 e0       	ldi	r17, 0x00	; 0
    1b8e:	31 c0       	rjmp	.+98     	; 0x1bf2 <cycle+0x27a>
    1b90:	d3 01       	movw	r26, r6
    1b92:	16 96       	adiw	r26, 0x06	; 6
    1b94:	0d 91       	ld	r16, X+
    1b96:	1c 91       	ld	r17, X
    1b98:	17 97       	sbiw	r26, 0x07	; 7
    1b9a:	9f 01       	movw	r18, r30
    1b9c:	ae 01       	movw	r20, r28
    1b9e:	4f 5f       	subi	r20, 0xFF	; 255
    1ba0:	5f 4f       	sbci	r21, 0xFF	; 255
    1ba2:	be 01       	movw	r22, r28
    1ba4:	60 5f       	subi	r22, 0xF0	; 240
    1ba6:	7f 4f       	sbci	r23, 0xFF	; 255
    1ba8:	ce 01       	movw	r24, r28
    1baa:	0a 96       	adiw	r24, 0x0a	; 10
    1bac:	0e 94 17 13 	call	0x262e	; 0x262e <MQTTDeserialize_ack>
    1bb0:	01 97       	sbiw	r24, 0x01	; 1
    1bb2:	69 f5       	brne	.+90     	; 0x1c0e <cycle+0x296>
    1bb4:	09 81       	ldd	r16, Y+1	; 0x01
    1bb6:	1a 81       	ldd	r17, Y+2	; 0x02
    1bb8:	f3 01       	movw	r30, r6
    1bba:	64 81       	ldd	r22, Z+4	; 0x04
    1bbc:	75 81       	ldd	r23, Z+5	; 0x05
    1bbe:	20 e0       	ldi	r18, 0x00	; 0
    1bc0:	46 e0       	ldi	r20, 0x06	; 6
    1bc2:	80 85       	ldd	r24, Z+8	; 0x08
    1bc4:	91 85       	ldd	r25, Z+9	; 0x09
    1bc6:	0e 94 e7 15 	call	0x2bce	; 0x2bce <MQTTSerialize_ack>
    1bca:	18 16       	cp	r1, r24
    1bcc:	19 06       	cpc	r1, r25
    1bce:	fc f4       	brge	.+62     	; 0x1c0e <cycle+0x296>
    1bd0:	a2 01       	movw	r20, r4
    1bd2:	bc 01       	movw	r22, r24
    1bd4:	c3 01       	movw	r24, r6
    1bd6:	0e 94 0f 0b 	call	0x161e	; 0x161e <sendPacket>
    1bda:	8c 01       	movw	r16, r24
    1bdc:	89 2b       	or	r24, r25
    1bde:	b9 f4       	brne	.+46     	; 0x1c0e <cycle+0x296>
    1be0:	08 c0       	rjmp	.+16     	; 0x1bf2 <cycle+0x27a>
    1be2:	d3 01       	movw	r26, r6
    1be4:	1e 96       	adiw	r26, 0x0e	; 14
    1be6:	1c 92       	st	X, r1
    1be8:	00 e0       	ldi	r16, 0x00	; 0
    1bea:	10 e0       	ldi	r17, 0x00	; 0
    1bec:	02 c0       	rjmp	.+4      	; 0x1bf2 <cycle+0x27a>
    1bee:	00 e0       	ldi	r16, 0x00	; 0
    1bf0:	10 e0       	ldi	r17, 0x00	; 0
    1bf2:	c3 01       	movw	r24, r6
    1bf4:	0e 94 6a 0c 	call	0x18d4	; 0x18d4 <keepalive>
    1bf8:	01 15       	cp	r16, r1
    1bfa:	11 05       	cpc	r17, r1
    1bfc:	51 f4       	brne	.+20     	; 0x1c12 <cycle+0x29a>
    1bfe:	81 01       	movw	r16, r2
    1c00:	08 c0       	rjmp	.+16     	; 0x1c12 <cycle+0x29a>
    1c02:	22 24       	eor	r2, r2
    1c04:	2a 94       	dec	r2
    1c06:	32 2c       	mov	r3, r2
    1c08:	00 e0       	ldi	r16, 0x00	; 0
    1c0a:	10 e0       	ldi	r17, 0x00	; 0
    1c0c:	f2 cf       	rjmp	.-28     	; 0x1bf2 <cycle+0x27a>
    1c0e:	0f ef       	ldi	r16, 0xFF	; 255
    1c10:	1f ef       	ldi	r17, 0xFF	; 255
    1c12:	c8 01       	movw	r24, r16
    1c14:	61 96       	adiw	r28, 0x11	; 17
    1c16:	0f b6       	in	r0, 0x3f	; 63
    1c18:	f8 94       	cli
    1c1a:	de bf       	out	0x3e, r29	; 62
    1c1c:	0f be       	out	0x3f, r0	; 63
    1c1e:	cd bf       	out	0x3d, r28	; 61
    1c20:	df 91       	pop	r29
    1c22:	cf 91       	pop	r28
    1c24:	1f 91       	pop	r17
    1c26:	0f 91       	pop	r16
    1c28:	ff 90       	pop	r15
    1c2a:	ef 90       	pop	r14
    1c2c:	df 90       	pop	r13
    1c2e:	cf 90       	pop	r12
    1c30:	bf 90       	pop	r11
    1c32:	af 90       	pop	r10
    1c34:	9f 90       	pop	r9
    1c36:	8f 90       	pop	r8
    1c38:	7f 90       	pop	r7
    1c3a:	6f 90       	pop	r6
    1c3c:	5f 90       	pop	r5
    1c3e:	4f 90       	pop	r4
    1c40:	3f 90       	pop	r3
    1c42:	2f 90       	pop	r2
    1c44:	08 95       	ret

00001c46 <MQTTYield>:
    1c46:	ef 92       	push	r14
    1c48:	ff 92       	push	r15
    1c4a:	0f 93       	push	r16
    1c4c:	1f 93       	push	r17
    1c4e:	cf 93       	push	r28
    1c50:	df 93       	push	r29
    1c52:	cd b7       	in	r28, 0x3d	; 61
    1c54:	de b7       	in	r29, 0x3e	; 62
    1c56:	28 97       	sbiw	r28, 0x08	; 8
    1c58:	0f b6       	in	r0, 0x3f	; 63
    1c5a:	f8 94       	cli
    1c5c:	de bf       	out	0x3e, r29	; 62
    1c5e:	0f be       	out	0x3f, r0	; 63
    1c60:	cd bf       	out	0x3d, r28	; 61
    1c62:	8c 01       	movw	r16, r24
    1c64:	7b 01       	movw	r14, r22
    1c66:	ce 01       	movw	r24, r28
    1c68:	01 96       	adiw	r24, 0x01	; 1
    1c6a:	0e 94 c9 17 	call	0x2f92	; 0x2f92 <TimerInit>
    1c6e:	b7 01       	movw	r22, r14
    1c70:	ce 01       	movw	r24, r28
    1c72:	01 96       	adiw	r24, 0x01	; 1
    1c74:	0e 94 e7 17 	call	0x2fce	; 0x2fce <TimerCountdownMS>
    1c78:	be 01       	movw	r22, r28
    1c7a:	6f 5f       	subi	r22, 0xFF	; 255
    1c7c:	7f 4f       	sbci	r23, 0xFF	; 255
    1c7e:	c8 01       	movw	r24, r16
    1c80:	0e 94 bc 0c 	call	0x1978	; 0x1978 <cycle>
    1c84:	21 e0       	ldi	r18, 0x01	; 1
    1c86:	30 e0       	ldi	r19, 0x00	; 0
    1c88:	01 96       	adiw	r24, 0x01	; 1
    1c8a:	11 f0       	breq	.+4      	; 0x1c90 <MQTTYield+0x4a>
    1c8c:	20 e0       	ldi	r18, 0x00	; 0
    1c8e:	30 e0       	ldi	r19, 0x00	; 0
    1c90:	88 27       	eor	r24, r24
    1c92:	99 27       	eor	r25, r25
    1c94:	82 1b       	sub	r24, r18
    1c96:	93 0b       	sbc	r25, r19
    1c98:	28 96       	adiw	r28, 0x08	; 8
    1c9a:	0f b6       	in	r0, 0x3f	; 63
    1c9c:	f8 94       	cli
    1c9e:	de bf       	out	0x3e, r29	; 62
    1ca0:	0f be       	out	0x3f, r0	; 63
    1ca2:	cd bf       	out	0x3d, r28	; 61
    1ca4:	df 91       	pop	r29
    1ca6:	cf 91       	pop	r28
    1ca8:	1f 91       	pop	r17
    1caa:	0f 91       	pop	r16
    1cac:	ff 90       	pop	r15
    1cae:	ef 90       	pop	r14
    1cb0:	08 95       	ret

00001cb2 <waitfor>:
    1cb2:	cf 92       	push	r12
    1cb4:	df 92       	push	r13
    1cb6:	ef 92       	push	r14
    1cb8:	ff 92       	push	r15
    1cba:	0f 93       	push	r16
    1cbc:	1f 93       	push	r17
    1cbe:	cf 93       	push	r28
    1cc0:	df 93       	push	r29
    1cc2:	6c 01       	movw	r12, r24
    1cc4:	7b 01       	movw	r14, r22
    1cc6:	8a 01       	movw	r16, r20
    1cc8:	cf ef       	ldi	r28, 0xFF	; 255
    1cca:	df ef       	ldi	r29, 0xFF	; 255
    1ccc:	c8 01       	movw	r24, r16
    1cce:	0e 94 cf 17 	call	0x2f9e	; 0x2f9e <TimerIsExpired>
    1cd2:	81 11       	cpse	r24, r1
    1cd4:	09 c0       	rjmp	.+18     	; 0x1ce8 <waitfor+0x36>
    1cd6:	b8 01       	movw	r22, r16
    1cd8:	c6 01       	movw	r24, r12
    1cda:	0e 94 bc 0c 	call	0x1978	; 0x1978 <cycle>
    1cde:	ec 01       	movw	r28, r24
    1ce0:	8e 15       	cp	r24, r14
    1ce2:	9f 05       	cpc	r25, r15
    1ce4:	99 f7       	brne	.-26     	; 0x1ccc <waitfor+0x1a>
    1ce6:	e7 01       	movw	r28, r14
    1ce8:	ce 01       	movw	r24, r28
    1cea:	df 91       	pop	r29
    1cec:	cf 91       	pop	r28
    1cee:	1f 91       	pop	r17
    1cf0:	0f 91       	pop	r16
    1cf2:	ff 90       	pop	r15
    1cf4:	ef 90       	pop	r14
    1cf6:	df 90       	pop	r13
    1cf8:	cf 90       	pop	r12
    1cfa:	08 95       	ret

00001cfc <MQTTConnect>:
    1cfc:	ef 92       	push	r14
    1cfe:	ff 92       	push	r15
    1d00:	0f 93       	push	r16
    1d02:	1f 93       	push	r17
    1d04:	cf 93       	push	r28
    1d06:	df 93       	push	r29
    1d08:	cd b7       	in	r28, 0x3d	; 61
    1d0a:	de b7       	in	r29, 0x3e	; 62
    1d0c:	eb 97       	sbiw	r28, 0x3b	; 59
    1d0e:	0f b6       	in	r0, 0x3f	; 63
    1d10:	f8 94       	cli
    1d12:	de bf       	out	0x3e, r29	; 62
    1d14:	0f be       	out	0x3f, r0	; 63
    1d16:	cd bf       	out	0x3d, r28	; 61
    1d18:	8c 01       	movw	r16, r24
    1d1a:	7b 01       	movw	r14, r22
    1d1c:	81 e3       	ldi	r24, 0x31	; 49
    1d1e:	e4 e4       	ldi	r30, 0x44	; 68
    1d20:	f1 e0       	ldi	r31, 0x01	; 1
    1d22:	de 01       	movw	r26, r28
    1d24:	19 96       	adiw	r26, 0x09	; 9
    1d26:	01 90       	ld	r0, Z+
    1d28:	0d 92       	st	X+, r0
    1d2a:	8a 95       	dec	r24
    1d2c:	e1 f7       	brne	.-8      	; 0x1d26 <MQTTConnect+0x2a>
    1d2e:	80 ee       	ldi	r24, 0xE0	; 224
    1d30:	91 e0       	ldi	r25, 0x01	; 1
    1d32:	0e 94 43 18 	call	0x3086	; 0x3086 <debug_uart_transmit_string_mqtt>
    1d36:	f8 01       	movw	r30, r16
    1d38:	87 85       	ldd	r24, Z+15	; 0x0f
    1d3a:	90 89       	ldd	r25, Z+16	; 0x10
    1d3c:	89 2b       	or	r24, r25
    1d3e:	09 f0       	breq	.+2      	; 0x1d42 <MQTTConnect+0x46>
    1d40:	64 c0       	rjmp	.+200    	; 0x1e0a <MQTTConnect+0x10e>
    1d42:	ce 01       	movw	r24, r28
    1d44:	01 96       	adiw	r24, 0x01	; 1
    1d46:	0e 94 c9 17 	call	0x2f92	; 0x2f92 <TimerInit>
    1d4a:	f8 01       	movw	r30, r16
    1d4c:	62 81       	ldd	r22, Z+2	; 0x02
    1d4e:	73 81       	ldd	r23, Z+3	; 0x03
    1d50:	ce 01       	movw	r24, r28
    1d52:	01 96       	adiw	r24, 0x01	; 1
    1d54:	0e 94 e7 17 	call	0x2fce	; 0x2fce <TimerCountdownMS>
    1d58:	e1 14       	cp	r14, r1
    1d5a:	f1 04       	cpc	r15, r1
    1d5c:	41 f4       	brne	.+16     	; 0x1d6e <MQTTConnect+0x72>
    1d5e:	8a ef       	ldi	r24, 0xFA	; 250
    1d60:	91 e0       	ldi	r25, 0x01	; 1
    1d62:	0e 94 43 18 	call	0x3086	; 0x3086 <debug_uart_transmit_string_mqtt>
    1d66:	7e 01       	movw	r14, r28
    1d68:	f9 e0       	ldi	r31, 0x09	; 9
    1d6a:	ef 0e       	add	r14, r31
    1d6c:	f1 1c       	adc	r15, r1
    1d6e:	f7 01       	movw	r30, r14
    1d70:	65 85       	ldd	r22, Z+13	; 0x0d
    1d72:	76 85       	ldd	r23, Z+14	; 0x0e
    1d74:	f8 01       	movw	r30, r16
    1d76:	75 87       	std	Z+13, r23	; 0x0d
    1d78:	64 87       	std	Z+12, r22	; 0x0c
    1d7a:	c8 01       	movw	r24, r16
    1d7c:	89 96       	adiw	r24, 0x29	; 41
    1d7e:	0e 94 fa 17 	call	0x2ff4	; 0x2ff4 <TimerCountdown>
    1d82:	f8 01       	movw	r30, r16
    1d84:	64 81       	ldd	r22, Z+4	; 0x04
    1d86:	75 81       	ldd	r23, Z+5	; 0x05
    1d88:	a7 01       	movw	r20, r14
    1d8a:	80 85       	ldd	r24, Z+8	; 0x08
    1d8c:	91 85       	ldd	r25, Z+9	; 0x09
    1d8e:	0e 94 3e 11 	call	0x227c	; 0x227c <MQTTSerialize_connect>
    1d92:	18 16       	cp	r1, r24
    1d94:	19 06       	cpc	r1, r25
    1d96:	ec f5       	brge	.+122    	; 0x1e12 <MQTTConnect+0x116>
    1d98:	ae 01       	movw	r20, r28
    1d9a:	4f 5f       	subi	r20, 0xFF	; 255
    1d9c:	5f 4f       	sbci	r21, 0xFF	; 255
    1d9e:	bc 01       	movw	r22, r24
    1da0:	c8 01       	movw	r24, r16
    1da2:	0e 94 0f 0b 	call	0x161e	; 0x161e <sendPacket>
    1da6:	7c 01       	movw	r14, r24
    1da8:	89 2b       	or	r24, r25
    1daa:	29 f0       	breq	.+10     	; 0x1db6 <MQTTConnect+0xba>
    1dac:	89 e0       	ldi	r24, 0x09	; 9
    1dae:	92 e0       	ldi	r25, 0x02	; 2
    1db0:	0e 94 43 18 	call	0x3086	; 0x3086 <debug_uart_transmit_string_mqtt>
    1db4:	39 c0       	rjmp	.+114    	; 0x1e28 <MQTTConnect+0x12c>
    1db6:	ae 01       	movw	r20, r28
    1db8:	4f 5f       	subi	r20, 0xFF	; 255
    1dba:	5f 4f       	sbci	r21, 0xFF	; 255
    1dbc:	62 e0       	ldi	r22, 0x02	; 2
    1dbe:	70 e0       	ldi	r23, 0x00	; 0
    1dc0:	c8 01       	movw	r24, r16
    1dc2:	0e 94 59 0e 	call	0x1cb2	; 0x1cb2 <waitfor>
    1dc6:	02 97       	sbiw	r24, 0x02	; 2
    1dc8:	41 f5       	brne	.+80     	; 0x1e1a <MQTTConnect+0x11e>
    1dca:	8f ef       	ldi	r24, 0xFF	; 255
    1dcc:	8b af       	std	Y+59, r24	; 0x3b
    1dce:	1a ae       	std	Y+58, r1	; 0x3a
    1dd0:	f8 01       	movw	r30, r16
    1dd2:	26 81       	ldd	r18, Z+6	; 0x06
    1dd4:	37 81       	ldd	r19, Z+7	; 0x07
    1dd6:	42 85       	ldd	r20, Z+10	; 0x0a
    1dd8:	53 85       	ldd	r21, Z+11	; 0x0b
    1dda:	be 01       	movw	r22, r28
    1ddc:	65 5c       	subi	r22, 0xC5	; 197
    1dde:	7f 4f       	sbci	r23, 0xFF	; 255
    1de0:	ce 01       	movw	r24, r28
    1de2:	ca 96       	adiw	r24, 0x3a	; 58
    1de4:	0e 94 15 12 	call	0x242a	; 0x242a <MQTTDeserialize_connack>
    1de8:	01 97       	sbiw	r24, 0x01	; 1
    1dea:	d9 f4       	brne	.+54     	; 0x1e22 <MQTTConnect+0x126>
    1dec:	eb ac       	ldd	r14, Y+59	; 0x3b
    1dee:	f1 2c       	mov	r15, r1
    1df0:	e1 14       	cp	r14, r1
    1df2:	f1 04       	cpc	r15, r1
    1df4:	c9 f4       	brne	.+50     	; 0x1e28 <MQTTConnect+0x12c>
    1df6:	8e e1       	ldi	r24, 0x1E	; 30
    1df8:	92 e0       	ldi	r25, 0x02	; 2
    1dfa:	0e 94 43 18 	call	0x3086	; 0x3086 <debug_uart_transmit_string_mqtt>
    1dfe:	81 e0       	ldi	r24, 0x01	; 1
    1e00:	90 e0       	ldi	r25, 0x00	; 0
    1e02:	f8 01       	movw	r30, r16
    1e04:	90 8b       	std	Z+16, r25	; 0x10
    1e06:	87 87       	std	Z+15, r24	; 0x0f
    1e08:	0f c0       	rjmp	.+30     	; 0x1e28 <MQTTConnect+0x12c>
    1e0a:	ee 24       	eor	r14, r14
    1e0c:	ea 94       	dec	r14
    1e0e:	fe 2c       	mov	r15, r14
    1e10:	0b c0       	rjmp	.+22     	; 0x1e28 <MQTTConnect+0x12c>
    1e12:	ee 24       	eor	r14, r14
    1e14:	ea 94       	dec	r14
    1e16:	fe 2c       	mov	r15, r14
    1e18:	07 c0       	rjmp	.+14     	; 0x1e28 <MQTTConnect+0x12c>
    1e1a:	ee 24       	eor	r14, r14
    1e1c:	ea 94       	dec	r14
    1e1e:	fe 2c       	mov	r15, r14
    1e20:	03 c0       	rjmp	.+6      	; 0x1e28 <MQTTConnect+0x12c>
    1e22:	ee 24       	eor	r14, r14
    1e24:	ea 94       	dec	r14
    1e26:	fe 2c       	mov	r15, r14
    1e28:	c7 01       	movw	r24, r14
    1e2a:	eb 96       	adiw	r28, 0x3b	; 59
    1e2c:	0f b6       	in	r0, 0x3f	; 63
    1e2e:	f8 94       	cli
    1e30:	de bf       	out	0x3e, r29	; 62
    1e32:	0f be       	out	0x3f, r0	; 63
    1e34:	cd bf       	out	0x3d, r28	; 61
    1e36:	df 91       	pop	r29
    1e38:	cf 91       	pop	r28
    1e3a:	1f 91       	pop	r17
    1e3c:	0f 91       	pop	r16
    1e3e:	ff 90       	pop	r15
    1e40:	ef 90       	pop	r14
    1e42:	08 95       	ret

00001e44 <MQTTSubscribe>:
    1e44:	6f 92       	push	r6
    1e46:	7f 92       	push	r7
    1e48:	8f 92       	push	r8
    1e4a:	9f 92       	push	r9
    1e4c:	af 92       	push	r10
    1e4e:	bf 92       	push	r11
    1e50:	cf 92       	push	r12
    1e52:	df 92       	push	r13
    1e54:	ef 92       	push	r14
    1e56:	ff 92       	push	r15
    1e58:	0f 93       	push	r16
    1e5a:	1f 93       	push	r17
    1e5c:	cf 93       	push	r28
    1e5e:	df 93       	push	r29
    1e60:	cd b7       	in	r28, 0x3d	; 61
    1e62:	de b7       	in	r29, 0x3e	; 62
    1e64:	65 97       	sbiw	r28, 0x15	; 21
    1e66:	0f b6       	in	r0, 0x3f	; 63
    1e68:	f8 94       	cli
    1e6a:	de bf       	out	0x3e, r29	; 62
    1e6c:	0f be       	out	0x3f, r0	; 63
    1e6e:	cd bf       	out	0x3d, r28	; 61
    1e70:	4d 8b       	std	Y+21, r20	; 0x15
    1e72:	1c 86       	std	Y+12, r1	; 0x0c
    1e74:	1b 86       	std	Y+11, r1	; 0x0b
    1e76:	1e 86       	std	Y+14, r1	; 0x0e
    1e78:	1d 86       	std	Y+13, r1	; 0x0d
    1e7a:	7a 87       	std	Y+10, r23	; 0x0a
    1e7c:	69 87       	std	Y+9, r22	; 0x09
    1e7e:	fc 01       	movw	r30, r24
    1e80:	47 85       	ldd	r20, Z+15	; 0x0f
    1e82:	50 89       	ldd	r21, Z+16	; 0x10
    1e84:	45 2b       	or	r20, r21
    1e86:	09 f4       	brne	.+2      	; 0x1e8a <MQTTSubscribe+0x46>
    1e88:	8a c0       	rjmp	.+276    	; 0x1f9e <MQTTSubscribe+0x15a>
    1e8a:	39 01       	movw	r6, r18
    1e8c:	4b 01       	movw	r8, r22
    1e8e:	5c 01       	movw	r10, r24
    1e90:	ce 01       	movw	r24, r28
    1e92:	01 96       	adiw	r24, 0x01	; 1
    1e94:	0e 94 c9 17 	call	0x2f92	; 0x2f92 <TimerInit>
    1e98:	f5 01       	movw	r30, r10
    1e9a:	62 81       	ldd	r22, Z+2	; 0x02
    1e9c:	73 81       	ldd	r23, Z+3	; 0x03
    1e9e:	ce 01       	movw	r24, r28
    1ea0:	01 96       	adiw	r24, 0x01	; 1
    1ea2:	0e 94 e7 17 	call	0x2fce	; 0x2fce <TimerCountdownMS>
    1ea6:	f5 01       	movw	r30, r10
    1ea8:	20 81       	ld	r18, Z
    1eaa:	31 81       	ldd	r19, Z+1	; 0x01
    1eac:	2f 3f       	cpi	r18, 0xFF	; 255
    1eae:	ff ef       	ldi	r31, 0xFF	; 255
    1eb0:	3f 07       	cpc	r19, r31
    1eb2:	19 f0       	breq	.+6      	; 0x1eba <MQTTSubscribe+0x76>
    1eb4:	2f 5f       	subi	r18, 0xFF	; 255
    1eb6:	3f 4f       	sbci	r19, 0xFF	; 255
    1eb8:	02 c0       	rjmp	.+4      	; 0x1ebe <MQTTSubscribe+0x7a>
    1eba:	21 e0       	ldi	r18, 0x01	; 1
    1ebc:	30 e0       	ldi	r19, 0x00	; 0
    1ebe:	f5 01       	movw	r30, r10
    1ec0:	31 83       	std	Z+1, r19	; 0x01
    1ec2:	20 83       	st	Z, r18
    1ec4:	64 81       	ldd	r22, Z+4	; 0x04
    1ec6:	75 81       	ldd	r23, Z+5	; 0x05
    1ec8:	ce 01       	movw	r24, r28
    1eca:	45 96       	adiw	r24, 0x15	; 21
    1ecc:	6c 01       	movw	r12, r24
    1ece:	fe 01       	movw	r30, r28
    1ed0:	39 96       	adiw	r30, 0x09	; 9
    1ed2:	7f 01       	movw	r14, r30
    1ed4:	01 e0       	ldi	r16, 0x01	; 1
    1ed6:	10 e0       	ldi	r17, 0x00	; 0
    1ed8:	40 e0       	ldi	r20, 0x00	; 0
    1eda:	f5 01       	movw	r30, r10
    1edc:	80 85       	ldd	r24, Z+8	; 0x08
    1ede:	91 85       	ldd	r25, Z+9	; 0x09
    1ee0:	0e 94 58 16 	call	0x2cb0	; 0x2cb0 <MQTTSerialize_subscribe>
    1ee4:	18 16       	cp	r1, r24
    1ee6:	19 06       	cpc	r1, r25
    1ee8:	0c f0       	brlt	.+2      	; 0x1eec <MQTTSubscribe+0xa8>
    1eea:	5d c0       	rjmp	.+186    	; 0x1fa6 <MQTTSubscribe+0x162>
    1eec:	ae 01       	movw	r20, r28
    1eee:	4f 5f       	subi	r20, 0xFF	; 255
    1ef0:	5f 4f       	sbci	r21, 0xFF	; 255
    1ef2:	bc 01       	movw	r22, r24
    1ef4:	c5 01       	movw	r24, r10
    1ef6:	0e 94 0f 0b 	call	0x161e	; 0x161e <sendPacket>
    1efa:	6c 01       	movw	r12, r24
    1efc:	89 2b       	or	r24, r25
    1efe:	09 f0       	breq	.+2      	; 0x1f02 <MQTTSubscribe+0xbe>
    1f00:	59 c0       	rjmp	.+178    	; 0x1fb4 <MQTTSubscribe+0x170>
    1f02:	ae 01       	movw	r20, r28
    1f04:	4f 5f       	subi	r20, 0xFF	; 255
    1f06:	5f 4f       	sbci	r21, 0xFF	; 255
    1f08:	69 e0       	ldi	r22, 0x09	; 9
    1f0a:	70 e0       	ldi	r23, 0x00	; 0
    1f0c:	c5 01       	movw	r24, r10
    1f0e:	0e 94 59 0e 	call	0x1cb2	; 0x1cb2 <waitfor>
    1f12:	09 97       	sbiw	r24, 0x09	; 9
    1f14:	09 f0       	breq	.+2      	; 0x1f18 <MQTTSubscribe+0xd4>
    1f16:	4b c0       	rjmp	.+150    	; 0x1fae <MQTTSubscribe+0x16a>
    1f18:	1c 8a       	std	Y+20, r1	; 0x14
    1f1a:	1b 8a       	std	Y+19, r1	; 0x13
    1f1c:	8f ef       	ldi	r24, 0xFF	; 255
    1f1e:	9f ef       	ldi	r25, 0xFF	; 255
    1f20:	9a 8b       	std	Y+18, r25	; 0x12
    1f22:	89 8b       	std	Y+17, r24	; 0x11
    1f24:	f5 01       	movw	r30, r10
    1f26:	e6 80       	ldd	r14, Z+6	; 0x06
    1f28:	f7 80       	ldd	r15, Z+7	; 0x07
    1f2a:	02 85       	ldd	r16, Z+10	; 0x0a
    1f2c:	13 85       	ldd	r17, Z+11	; 0x0b
    1f2e:	9e 01       	movw	r18, r28
    1f30:	2f 5e       	subi	r18, 0xEF	; 239
    1f32:	3f 4f       	sbci	r19, 0xFF	; 255
    1f34:	ae 01       	movw	r20, r28
    1f36:	4d 5e       	subi	r20, 0xED	; 237
    1f38:	5f 4f       	sbci	r21, 0xFF	; 255
    1f3a:	61 e0       	ldi	r22, 0x01	; 1
    1f3c:	70 e0       	ldi	r23, 0x00	; 0
    1f3e:	ce 01       	movw	r24, r28
    1f40:	0f 96       	adiw	r24, 0x0f	; 15
    1f42:	0e 94 d6 16 	call	0x2dac	; 0x2dac <MQTTDeserialize_suback>
    1f46:	01 97       	sbiw	r24, 0x01	; 1
    1f48:	31 f4       	brne	.+12     	; 0x1f56 <MQTTSubscribe+0x112>
    1f4a:	49 89       	ldd	r20, Y+17	; 0x11
    1f4c:	5a 89       	ldd	r21, Y+18	; 0x12
    1f4e:	40 38       	cpi	r20, 0x80	; 128
    1f50:	51 05       	cpc	r21, r1
    1f52:	19 f1       	breq	.+70     	; 0x1f9a <MQTTSubscribe+0x156>
    1f54:	01 c0       	rjmp	.+2      	; 0x1f58 <MQTTSubscribe+0x114>
    1f56:	a6 01       	movw	r20, r12
    1f58:	f5 01       	movw	r30, r10
    1f5a:	81 89       	ldd	r24, Z+17	; 0x11
    1f5c:	92 89       	ldd	r25, Z+18	; 0x12
    1f5e:	89 2b       	or	r24, r25
    1f60:	39 f0       	breq	.+14     	; 0x1f70 <MQTTSubscribe+0x12c>
    1f62:	81 e0       	ldi	r24, 0x01	; 1
    1f64:	90 e0       	ldi	r25, 0x00	; 0
    1f66:	25 89       	ldd	r18, Z+21	; 0x15
    1f68:	36 89       	ldd	r19, Z+22	; 0x16
    1f6a:	23 2b       	or	r18, r19
    1f6c:	79 f4       	brne	.+30     	; 0x1f8c <MQTTSubscribe+0x148>
    1f6e:	02 c0       	rjmp	.+4      	; 0x1f74 <MQTTSubscribe+0x130>
    1f70:	80 e0       	ldi	r24, 0x00	; 0
    1f72:	90 e0       	ldi	r25, 0x00	; 0
    1f74:	88 0f       	add	r24, r24
    1f76:	99 1f       	adc	r25, r25
    1f78:	88 0f       	add	r24, r24
    1f7a:	99 1f       	adc	r25, r25
    1f7c:	f5 01       	movw	r30, r10
    1f7e:	e8 0f       	add	r30, r24
    1f80:	f9 1f       	adc	r31, r25
    1f82:	92 8a       	std	Z+18, r9	; 0x12
    1f84:	81 8a       	std	Z+17, r8	; 0x11
    1f86:	74 8a       	std	Z+20, r7	; 0x14
    1f88:	63 8a       	std	Z+19, r6	; 0x13
    1f8a:	14 c0       	rjmp	.+40     	; 0x1fb4 <MQTTSubscribe+0x170>
    1f8c:	01 96       	adiw	r24, 0x01	; 1
    1f8e:	34 96       	adiw	r30, 0x04	; 4
    1f90:	85 30       	cpi	r24, 0x05	; 5
    1f92:	91 05       	cpc	r25, r1
    1f94:	41 f7       	brne	.-48     	; 0x1f66 <MQTTSubscribe+0x122>
    1f96:	6a 01       	movw	r12, r20
    1f98:	0d c0       	rjmp	.+26     	; 0x1fb4 <MQTTSubscribe+0x170>
    1f9a:	6a 01       	movw	r12, r20
    1f9c:	0b c0       	rjmp	.+22     	; 0x1fb4 <MQTTSubscribe+0x170>
    1f9e:	cc 24       	eor	r12, r12
    1fa0:	ca 94       	dec	r12
    1fa2:	dc 2c       	mov	r13, r12
    1fa4:	07 c0       	rjmp	.+14     	; 0x1fb4 <MQTTSubscribe+0x170>
    1fa6:	cc 24       	eor	r12, r12
    1fa8:	ca 94       	dec	r12
    1faa:	dc 2c       	mov	r13, r12
    1fac:	03 c0       	rjmp	.+6      	; 0x1fb4 <MQTTSubscribe+0x170>
    1fae:	cc 24       	eor	r12, r12
    1fb0:	ca 94       	dec	r12
    1fb2:	dc 2c       	mov	r13, r12
    1fb4:	c6 01       	movw	r24, r12
    1fb6:	65 96       	adiw	r28, 0x15	; 21
    1fb8:	0f b6       	in	r0, 0x3f	; 63
    1fba:	f8 94       	cli
    1fbc:	de bf       	out	0x3e, r29	; 62
    1fbe:	0f be       	out	0x3f, r0	; 63
    1fc0:	cd bf       	out	0x3d, r28	; 61
    1fc2:	df 91       	pop	r29
    1fc4:	cf 91       	pop	r28
    1fc6:	1f 91       	pop	r17
    1fc8:	0f 91       	pop	r16
    1fca:	ff 90       	pop	r15
    1fcc:	ef 90       	pop	r14
    1fce:	df 90       	pop	r13
    1fd0:	cf 90       	pop	r12
    1fd2:	bf 90       	pop	r11
    1fd4:	af 90       	pop	r10
    1fd6:	9f 90       	pop	r9
    1fd8:	8f 90       	pop	r8
    1fda:	7f 90       	pop	r7
    1fdc:	6f 90       	pop	r6
    1fde:	08 95       	ret

00001fe0 <MQTTPublish>:


int MQTTPublish(MQTTClient* c, const char* topicName, MQTTMessage* message)
{
    1fe0:	4f 92       	push	r4
    1fe2:	5f 92       	push	r5
    1fe4:	6f 92       	push	r6
    1fe6:	7f 92       	push	r7
    1fe8:	8f 92       	push	r8
    1fea:	9f 92       	push	r9
    1fec:	af 92       	push	r10
    1fee:	bf 92       	push	r11
    1ff0:	cf 92       	push	r12
    1ff2:	df 92       	push	r13
    1ff4:	ef 92       	push	r14
    1ff6:	ff 92       	push	r15
    1ff8:	0f 93       	push	r16
    1ffa:	1f 93       	push	r17
    1ffc:	cf 93       	push	r28
    1ffe:	df 93       	push	r29
    2000:	cd b7       	in	r28, 0x3d	; 61
    2002:	de b7       	in	r29, 0x3e	; 62
    2004:	62 97       	sbiw	r28, 0x12	; 18
    2006:	0f b6       	in	r0, 0x3f	; 63
    2008:	f8 94       	cli
    200a:	de bf       	out	0x3e, r29	; 62
    200c:	0f be       	out	0x3f, r0	; 63
    200e:	cd bf       	out	0x3d, r28	; 61
    int rc = FAILURE;
    Timer timer;   
    MQTTString topic = MQTTString_initializer;
    2010:	1c 86       	std	Y+12, r1	; 0x0c
    2012:	1b 86       	std	Y+11, r1	; 0x0b
    2014:	1e 86       	std	Y+14, r1	; 0x0e
    2016:	1d 86       	std	Y+13, r1	; 0x0d
    topic.cstring = (char *)topicName;
    2018:	7a 87       	std	Y+10, r23	; 0x0a
    201a:	69 87       	std	Y+9, r22	; 0x09
    int len = 0;

#if defined(MQTT_TASK)
	MutexLock(&c->mutex);
#endif
	if (!c->isconnected)
    201c:	fc 01       	movw	r30, r24
    201e:	27 85       	ldd	r18, Z+15	; 0x0f
    2020:	30 89       	ldd	r19, Z+16	; 0x10
    2022:	23 2b       	or	r18, r19
    2024:	09 f4       	brne	.+2      	; 0x2028 <MQTTPublish+0x48>
    2026:	a2 c0       	rjmp	.+324    	; 0x216c <MQTTPublish+0x18c>
    2028:	3a 01       	movw	r6, r20
    202a:	2c 01       	movw	r4, r24
		goto exit;

    TimerInit(&timer);
    202c:	ce 01       	movw	r24, r28
    202e:	01 96       	adiw	r24, 0x01	; 1
    2030:	0e 94 c9 17 	call	0x2f92	; 0x2f92 <TimerInit>
    TimerCountdownMS(&timer, c->command_timeout_ms);
    2034:	f2 01       	movw	r30, r4
    2036:	62 81       	ldd	r22, Z+2	; 0x02
    2038:	73 81       	ldd	r23, Z+3	; 0x03
    203a:	ce 01       	movw	r24, r28
    203c:	01 96       	adiw	r24, 0x01	; 1
    203e:	0e 94 e7 17 	call	0x2fce	; 0x2fce <TimerCountdownMS>

    if (message->qos == QOS1 || message->qos == QOS2)
    2042:	f3 01       	movw	r30, r6
    2044:	80 81       	ld	r24, Z
    2046:	81 50       	subi	r24, 0x01	; 1
    2048:	82 30       	cpi	r24, 0x02	; 2
    204a:	88 f4       	brcc	.+34     	; 0x206e <MQTTPublish+0x8e>
    md->message = aMessage;
}


static int getNextPacketId(MQTTClient *c) {
    return c->next_packetid = (c->next_packetid == MAX_PACKET_ID) ? 1 : c->next_packetid + 1;
    204c:	f2 01       	movw	r30, r4
    204e:	80 81       	ld	r24, Z
    2050:	91 81       	ldd	r25, Z+1	; 0x01
    2052:	8f 3f       	cpi	r24, 0xFF	; 255
    2054:	ff ef       	ldi	r31, 0xFF	; 255
    2056:	9f 07       	cpc	r25, r31
    2058:	11 f0       	breq	.+4      	; 0x205e <MQTTPublish+0x7e>
    205a:	01 96       	adiw	r24, 0x01	; 1
    205c:	02 c0       	rjmp	.+4      	; 0x2062 <MQTTPublish+0x82>
    205e:	81 e0       	ldi	r24, 0x01	; 1
    2060:	90 e0       	ldi	r25, 0x00	; 0
    2062:	f2 01       	movw	r30, r4
    2064:	91 83       	std	Z+1, r25	; 0x01
    2066:	80 83       	st	Z, r24

    TimerInit(&timer);
    TimerCountdownMS(&timer, c->command_timeout_ms);

    if (message->qos == QOS1 || message->qos == QOS2)
        message->id = getNextPacketId(c);
    2068:	f3 01       	movw	r30, r6
    206a:	94 83       	std	Z+4, r25	; 0x04
    206c:	83 83       	std	Z+3, r24	; 0x03
    
    len = MQTTSerialize_publish(c->buf, c->buf_size, 0, message->qos, message->retained, message->id, 
    206e:	f3 01       	movw	r30, r6
    2070:	e3 80       	ldd	r14, Z+3	; 0x03
    2072:	f4 80       	ldd	r15, Z+4	; 0x04
    2074:	20 81       	ld	r18, Z
    2076:	30 e0       	ldi	r19, 0x00	; 0
    2078:	f2 01       	movw	r30, r4
    207a:	64 81       	ldd	r22, Z+4	; 0x04
    207c:	75 81       	ldd	r23, Z+5	; 0x05
    207e:	f3 01       	movw	r30, r6
    2080:	80 85       	ldd	r24, Z+8	; 0x08
    2082:	8f 93       	push	r24
    2084:	87 81       	ldd	r24, Z+7	; 0x07
    2086:	8f 93       	push	r24
    2088:	86 81       	ldd	r24, Z+6	; 0x06
    208a:	8f 93       	push	r24
    208c:	85 81       	ldd	r24, Z+5	; 0x05
    208e:	8f 93       	push	r24
    2090:	89 84       	ldd	r8, Y+9	; 0x09
    2092:	9a 84       	ldd	r9, Y+10	; 0x0a
    2094:	ab 84       	ldd	r10, Y+11	; 0x0b
    2096:	bc 84       	ldd	r11, Y+12	; 0x0c
    2098:	cd 84       	ldd	r12, Y+13	; 0x0d
    209a:	de 84       	ldd	r13, Y+14	; 0x0e
    209c:	01 81       	ldd	r16, Z+1	; 0x01
    209e:	40 e0       	ldi	r20, 0x00	; 0
    20a0:	f2 01       	movw	r30, r4
    20a2:	80 85       	ldd	r24, Z+8	; 0x08
    20a4:	91 85       	ldd	r25, Z+9	; 0x09
    20a6:	0e 94 58 15 	call	0x2ab0	; 0x2ab0 <MQTTSerialize_publish>
              topic, (unsigned char*)message->payload, message->payloadlen);
    if (len <= 0)
    20aa:	0f 90       	pop	r0
    20ac:	0f 90       	pop	r0
    20ae:	0f 90       	pop	r0
    20b0:	0f 90       	pop	r0
    20b2:	18 16       	cp	r1, r24
    20b4:	19 06       	cpc	r1, r25
    20b6:	0c f0       	brlt	.+2      	; 0x20ba <MQTTPublish+0xda>
    20b8:	5c c0       	rjmp	.+184    	; 0x2172 <MQTTPublish+0x192>
        goto exit;
    if ((rc = sendPacket(c, len, &timer)) != SUCCESSS) // send the subscribe packet
    20ba:	ae 01       	movw	r20, r28
    20bc:	4f 5f       	subi	r20, 0xFF	; 255
    20be:	5f 4f       	sbci	r21, 0xFF	; 255
    20c0:	bc 01       	movw	r22, r24
    20c2:	c2 01       	movw	r24, r4
    20c4:	0e 94 0f 0b 	call	0x161e	; 0x161e <sendPacket>
    20c8:	00 97       	sbiw	r24, 0x00	; 0
    20ca:	09 f0       	breq	.+2      	; 0x20ce <MQTTPublish+0xee>
    20cc:	5a c0       	rjmp	.+180    	; 0x2182 <MQTTPublish+0x1a2>
        goto exit; // there was a problem
    
    if (message->qos == QOS1)
    20ce:	f3 01       	movw	r30, r6
    20d0:	20 81       	ld	r18, Z
    20d2:	21 30       	cpi	r18, 0x01	; 1
    20d4:	29 f5       	brne	.+74     	; 0x2120 <MQTTPublish+0x140>
    {
        if (waitfor(c, PUBACK, &timer) == PUBACK)
    20d6:	ae 01       	movw	r20, r28
    20d8:	4f 5f       	subi	r20, 0xFF	; 255
    20da:	5f 4f       	sbci	r21, 0xFF	; 255
    20dc:	64 e0       	ldi	r22, 0x04	; 4
    20de:	70 e0       	ldi	r23, 0x00	; 0
    20e0:	c2 01       	movw	r24, r4
    20e2:	0e 94 59 0e 	call	0x1cb2	; 0x1cb2 <waitfor>
    20e6:	04 97       	sbiw	r24, 0x04	; 4
    20e8:	09 f0       	breq	.+2      	; 0x20ec <MQTTPublish+0x10c>
    20ea:	46 c0       	rjmp	.+140    	; 0x2178 <MQTTPublish+0x198>
        {
            unsigned short mypacketid;
            unsigned char dup, type;
            if (MQTTDeserialize_ack(&type, &dup, &mypacketid, c->readbuf, c->readbuf_size) != 1)
    20ec:	f2 01       	movw	r30, r4
    20ee:	06 81       	ldd	r16, Z+6	; 0x06
    20f0:	17 81       	ldd	r17, Z+7	; 0x07
    20f2:	22 85       	ldd	r18, Z+10	; 0x0a
    20f4:	33 85       	ldd	r19, Z+11	; 0x0b
    20f6:	ae 01       	movw	r20, r28
    20f8:	41 5f       	subi	r20, 0xF1	; 241
    20fa:	5f 4f       	sbci	r21, 0xFF	; 255
    20fc:	be 01       	movw	r22, r28
    20fe:	6e 5e       	subi	r22, 0xEE	; 238
    2100:	7f 4f       	sbci	r23, 0xFF	; 255
    2102:	ce 01       	movw	r24, r28
    2104:	41 96       	adiw	r24, 0x11	; 17
    2106:	0e 94 17 13 	call	0x262e	; 0x262e <MQTTDeserialize_ack>
    210a:	21 e0       	ldi	r18, 0x01	; 1
    210c:	30 e0       	ldi	r19, 0x00	; 0
    210e:	01 97       	sbiw	r24, 0x01	; 1
    2110:	11 f4       	brne	.+4      	; 0x2116 <MQTTPublish+0x136>
    2112:	20 e0       	ldi	r18, 0x00	; 0
    2114:	30 e0       	ldi	r19, 0x00	; 0
    2116:	88 27       	eor	r24, r24
    2118:	99 27       	eor	r25, r25
    211a:	82 1b       	sub	r24, r18
    211c:	93 0b       	sbc	r25, r19
    211e:	31 c0       	rjmp	.+98     	; 0x2182 <MQTTPublish+0x1a2>
                rc = FAILURE;
        }
        else
            rc = FAILURE;
    }
    else if (message->qos == QOS2)
    2120:	22 30       	cpi	r18, 0x02	; 2
    2122:	79 f5       	brne	.+94     	; 0x2182 <MQTTPublish+0x1a2>
    {
        if (waitfor(c, PUBCOMP, &timer) == PUBCOMP)
    2124:	ae 01       	movw	r20, r28
    2126:	4f 5f       	subi	r20, 0xFF	; 255
    2128:	5f 4f       	sbci	r21, 0xFF	; 255
    212a:	67 e0       	ldi	r22, 0x07	; 7
    212c:	70 e0       	ldi	r23, 0x00	; 0
    212e:	c2 01       	movw	r24, r4
    2130:	0e 94 59 0e 	call	0x1cb2	; 0x1cb2 <waitfor>
    2134:	07 97       	sbiw	r24, 0x07	; 7
    2136:	19 f5       	brne	.+70     	; 0x217e <MQTTPublish+0x19e>
        {
            unsigned short mypacketid;
            unsigned char dup, type;
            if (MQTTDeserialize_ack(&type, &dup, &mypacketid, c->readbuf, c->readbuf_size) != 1)
    2138:	f2 01       	movw	r30, r4
    213a:	06 81       	ldd	r16, Z+6	; 0x06
    213c:	17 81       	ldd	r17, Z+7	; 0x07
    213e:	22 85       	ldd	r18, Z+10	; 0x0a
    2140:	33 85       	ldd	r19, Z+11	; 0x0b
    2142:	ae 01       	movw	r20, r28
    2144:	41 5f       	subi	r20, 0xF1	; 241
    2146:	5f 4f       	sbci	r21, 0xFF	; 255
    2148:	be 01       	movw	r22, r28
    214a:	6e 5e       	subi	r22, 0xEE	; 238
    214c:	7f 4f       	sbci	r23, 0xFF	; 255
    214e:	ce 01       	movw	r24, r28
    2150:	41 96       	adiw	r24, 0x11	; 17
    2152:	0e 94 17 13 	call	0x262e	; 0x262e <MQTTDeserialize_ack>
    2156:	21 e0       	ldi	r18, 0x01	; 1
    2158:	30 e0       	ldi	r19, 0x00	; 0
    215a:	01 97       	sbiw	r24, 0x01	; 1
    215c:	11 f4       	brne	.+4      	; 0x2162 <MQTTPublish+0x182>
    215e:	20 e0       	ldi	r18, 0x00	; 0
    2160:	30 e0       	ldi	r19, 0x00	; 0
    2162:	88 27       	eor	r24, r24
    2164:	99 27       	eor	r25, r25
    2166:	82 1b       	sub	r24, r18
    2168:	93 0b       	sbc	r25, r19
    216a:	0b c0       	rjmp	.+22     	; 0x2182 <MQTTPublish+0x1a2>
}


int MQTTPublish(MQTTClient* c, const char* topicName, MQTTMessage* message)
{
    int rc = FAILURE;
    216c:	8f ef       	ldi	r24, 0xFF	; 255
    216e:	9f ef       	ldi	r25, 0xFF	; 255
    2170:	08 c0       	rjmp	.+16     	; 0x2182 <MQTTPublish+0x1a2>
    2172:	8f ef       	ldi	r24, 0xFF	; 255
    2174:	9f ef       	ldi	r25, 0xFF	; 255
    2176:	05 c0       	rjmp	.+10     	; 0x2182 <MQTTPublish+0x1a2>
            unsigned char dup, type;
            if (MQTTDeserialize_ack(&type, &dup, &mypacketid, c->readbuf, c->readbuf_size) != 1)
                rc = FAILURE;
        }
        else
            rc = FAILURE;
    2178:	8f ef       	ldi	r24, 0xFF	; 255
    217a:	9f ef       	ldi	r25, 0xFF	; 255
    217c:	02 c0       	rjmp	.+4      	; 0x2182 <MQTTPublish+0x1a2>
            unsigned char dup, type;
            if (MQTTDeserialize_ack(&type, &dup, &mypacketid, c->readbuf, c->readbuf_size) != 1)
                rc = FAILURE;
        }
        else
            rc = FAILURE;
    217e:	8f ef       	ldi	r24, 0xFF	; 255
    2180:	9f ef       	ldi	r25, 0xFF	; 255
exit:
#if defined(MQTT_TASK)
	MutexUnlock(&c->mutex);
#endif
    return rc;
}
    2182:	62 96       	adiw	r28, 0x12	; 18
    2184:	0f b6       	in	r0, 0x3f	; 63
    2186:	f8 94       	cli
    2188:	de bf       	out	0x3e, r29	; 62
    218a:	0f be       	out	0x3f, r0	; 63
    218c:	cd bf       	out	0x3d, r28	; 61
    218e:	df 91       	pop	r29
    2190:	cf 91       	pop	r28
    2192:	1f 91       	pop	r17
    2194:	0f 91       	pop	r16
    2196:	ff 90       	pop	r15
    2198:	ef 90       	pop	r14
    219a:	df 90       	pop	r13
    219c:	cf 90       	pop	r12
    219e:	bf 90       	pop	r11
    21a0:	af 90       	pop	r10
    21a2:	9f 90       	pop	r9
    21a4:	8f 90       	pop	r8
    21a6:	7f 90       	pop	r7
    21a8:	6f 90       	pop	r6
    21aa:	5f 90       	pop	r5
    21ac:	4f 90       	pop	r4
    21ae:	08 95       	ret

000021b0 <MQTTSerialize_connectLength>:
  * @return serialized length, or error if 0
  */
int MQTTSerialize_disconnect(unsigned char* buf, int buflen)
{
	return MQTTSerialize_zero(buf, buflen, DISCONNECT);
}
    21b0:	ef 92       	push	r14
    21b2:	ff 92       	push	r15
    21b4:	0f 93       	push	r16
    21b6:	1f 93       	push	r17
    21b8:	cf 93       	push	r28
    21ba:	df 93       	push	r29
    21bc:	ec 01       	movw	r28, r24
    21be:	8e 81       	ldd	r24, Y+6	; 0x06
    21c0:	83 30       	cpi	r24, 0x03	; 3
    21c2:	29 f0       	breq	.+10     	; 0x21ce <MQTTSerialize_connectLength+0x1e>
    21c4:	84 30       	cpi	r24, 0x04	; 4
    21c6:	31 f4       	brne	.+12     	; 0x21d4 <MQTTSerialize_connectLength+0x24>
    21c8:	0a e0       	ldi	r16, 0x0A	; 10
    21ca:	10 e0       	ldi	r17, 0x00	; 0
    21cc:	05 c0       	rjmp	.+10     	; 0x21d8 <MQTTSerialize_connectLength+0x28>
    21ce:	0c e0       	ldi	r16, 0x0C	; 12
    21d0:	10 e0       	ldi	r17, 0x00	; 0
    21d2:	02 c0       	rjmp	.+4      	; 0x21d8 <MQTTSerialize_connectLength+0x28>
    21d4:	00 e0       	ldi	r16, 0x00	; 0
    21d6:	10 e0       	ldi	r17, 0x00	; 0
    21d8:	4f 81       	ldd	r20, Y+7	; 0x07
    21da:	58 85       	ldd	r21, Y+8	; 0x08
    21dc:	69 85       	ldd	r22, Y+9	; 0x09
    21de:	7a 85       	ldd	r23, Y+10	; 0x0a
    21e0:	8b 85       	ldd	r24, Y+11	; 0x0b
    21e2:	9c 85       	ldd	r25, Y+12	; 0x0c
    21e4:	0e 94 de 14 	call	0x29bc	; 0x29bc <MQTTstrlen>
    21e8:	02 96       	adiw	r24, 0x02	; 2
    21ea:	08 0f       	add	r16, r24
    21ec:	19 1f       	adc	r17, r25
    21ee:	88 89       	ldd	r24, Y+16	; 0x10
    21f0:	88 23       	and	r24, r24
    21f2:	b1 f0       	breq	.+44     	; 0x2220 <MQTTSerialize_connectLength+0x70>
    21f4:	4f 89       	ldd	r20, Y+23	; 0x17
    21f6:	58 8d       	ldd	r21, Y+24	; 0x18
    21f8:	69 8d       	ldd	r22, Y+25	; 0x19
    21fa:	7a 8d       	ldd	r23, Y+26	; 0x1a
    21fc:	8b 8d       	ldd	r24, Y+27	; 0x1b
    21fe:	9c 8d       	ldd	r25, Y+28	; 0x1c
    2200:	0e 94 de 14 	call	0x29bc	; 0x29bc <MQTTstrlen>
    2204:	7c 01       	movw	r14, r24
    2206:	4d 8d       	ldd	r20, Y+29	; 0x1d
    2208:	5e 8d       	ldd	r21, Y+30	; 0x1e
    220a:	6f 8d       	ldd	r22, Y+31	; 0x1f
    220c:	78 a1       	ldd	r23, Y+32	; 0x20
    220e:	89 a1       	ldd	r24, Y+33	; 0x21
    2210:	9a a1       	ldd	r25, Y+34	; 0x22
    2212:	0e 94 de 14 	call	0x29bc	; 0x29bc <MQTTstrlen>
    2216:	8e 0d       	add	r24, r14
    2218:	9f 1d       	adc	r25, r15
    221a:	04 96       	adiw	r24, 0x04	; 4
    221c:	08 0f       	add	r16, r24
    221e:	19 1f       	adc	r17, r25
    2220:	8d a1       	ldd	r24, Y+37	; 0x25
    2222:	9e a1       	ldd	r25, Y+38	; 0x26
    2224:	89 2b       	or	r24, r25
    2226:	21 f4       	brne	.+8      	; 0x2230 <MQTTSerialize_connectLength+0x80>
    2228:	89 a5       	ldd	r24, Y+41	; 0x29
    222a:	9a a5       	ldd	r25, Y+42	; 0x2a
    222c:	89 2b       	or	r24, r25
    222e:	59 f0       	breq	.+22     	; 0x2246 <MQTTSerialize_connectLength+0x96>
    2230:	4d a1       	ldd	r20, Y+37	; 0x25
    2232:	5e a1       	ldd	r21, Y+38	; 0x26
    2234:	6f a1       	ldd	r22, Y+39	; 0x27
    2236:	78 a5       	ldd	r23, Y+40	; 0x28
    2238:	89 a5       	ldd	r24, Y+41	; 0x29
    223a:	9a a5       	ldd	r25, Y+42	; 0x2a
    223c:	0e 94 de 14 	call	0x29bc	; 0x29bc <MQTTstrlen>
    2240:	02 96       	adiw	r24, 0x02	; 2
    2242:	08 0f       	add	r16, r24
    2244:	19 1f       	adc	r17, r25
    2246:	8b a5       	ldd	r24, Y+43	; 0x2b
    2248:	9c a5       	ldd	r25, Y+44	; 0x2c
    224a:	89 2b       	or	r24, r25
    224c:	21 f4       	brne	.+8      	; 0x2256 <MQTTSerialize_connectLength+0xa6>
    224e:	8f a5       	ldd	r24, Y+47	; 0x2f
    2250:	98 a9       	ldd	r25, Y+48	; 0x30
    2252:	89 2b       	or	r24, r25
    2254:	59 f0       	breq	.+22     	; 0x226c <MQTTSerialize_connectLength+0xbc>
    2256:	4b a5       	ldd	r20, Y+43	; 0x2b
    2258:	5c a5       	ldd	r21, Y+44	; 0x2c
    225a:	6d a5       	ldd	r22, Y+45	; 0x2d
    225c:	7e a5       	ldd	r23, Y+46	; 0x2e
    225e:	8f a5       	ldd	r24, Y+47	; 0x2f
    2260:	98 a9       	ldd	r25, Y+48	; 0x30
    2262:	0e 94 de 14 	call	0x29bc	; 0x29bc <MQTTstrlen>
    2266:	02 96       	adiw	r24, 0x02	; 2
    2268:	08 0f       	add	r16, r24
    226a:	19 1f       	adc	r17, r25
    226c:	c8 01       	movw	r24, r16
    226e:	df 91       	pop	r29
    2270:	cf 91       	pop	r28
    2272:	1f 91       	pop	r17
    2274:	0f 91       	pop	r16
    2276:	ff 90       	pop	r15
    2278:	ef 90       	pop	r14
    227a:	08 95       	ret

0000227c <MQTTSerialize_connect>:
    227c:	af 92       	push	r10
    227e:	bf 92       	push	r11
    2280:	cf 92       	push	r12
    2282:	df 92       	push	r13
    2284:	ef 92       	push	r14
    2286:	ff 92       	push	r15
    2288:	0f 93       	push	r16
    228a:	1f 93       	push	r17
    228c:	cf 93       	push	r28
    228e:	df 93       	push	r29
    2290:	00 d0       	rcall	.+0      	; 0x2292 <MQTTSerialize_connect+0x16>
    2292:	cd b7       	in	r28, 0x3d	; 61
    2294:	de b7       	in	r29, 0x3e	; 62
    2296:	6c 01       	movw	r12, r24
    2298:	5b 01       	movw	r10, r22
    229a:	8a 01       	movw	r16, r20
    229c:	9a 83       	std	Y+2, r25	; 0x02
    229e:	89 83       	std	Y+1, r24	; 0x01
    22a0:	ca 01       	movw	r24, r20
    22a2:	0e 94 d8 10 	call	0x21b0	; 0x21b0 <MQTTSerialize_connectLength>
    22a6:	7c 01       	movw	r14, r24
    22a8:	0e 94 e2 13 	call	0x27c4	; 0x27c4 <MQTTPacket_len>
    22ac:	a8 16       	cp	r10, r24
    22ae:	b9 06       	cpc	r11, r25
    22b0:	0c f4       	brge	.+2      	; 0x22b4 <MQTTSerialize_connect+0x38>
    22b2:	ac c0       	rjmp	.+344    	; 0x240c <MQTTSerialize_connect+0x190>
    22b4:	60 e1       	ldi	r22, 0x10	; 16
    22b6:	ce 01       	movw	r24, r28
    22b8:	01 96       	adiw	r24, 0x01	; 1
    22ba:	0e 94 12 14 	call	0x2824	; 0x2824 <writeChar>
    22be:	b7 01       	movw	r22, r14
    22c0:	89 81       	ldd	r24, Y+1	; 0x01
    22c2:	9a 81       	ldd	r25, Y+2	; 0x02
    22c4:	0e 94 74 13 	call	0x26e8	; 0x26e8 <MQTTPacket_encode>
    22c8:	29 81       	ldd	r18, Y+1	; 0x01
    22ca:	3a 81       	ldd	r19, Y+2	; 0x02
    22cc:	82 0f       	add	r24, r18
    22ce:	93 1f       	adc	r25, r19
    22d0:	9a 83       	std	Y+2, r25	; 0x02
    22d2:	89 83       	std	Y+1, r24	; 0x01
    22d4:	f8 01       	movw	r30, r16
    22d6:	86 81       	ldd	r24, Z+6	; 0x06
    22d8:	84 30       	cpi	r24, 0x04	; 4
    22da:	61 f4       	brne	.+24     	; 0x22f4 <MQTTSerialize_connect+0x78>
    22dc:	6d e2       	ldi	r22, 0x2D	; 45
    22de:	72 e0       	ldi	r23, 0x02	; 2
    22e0:	ce 01       	movw	r24, r28
    22e2:	01 96       	adiw	r24, 0x01	; 1
    22e4:	0e 94 3b 14 	call	0x2876	; 0x2876 <writeCString>
    22e8:	64 e0       	ldi	r22, 0x04	; 4
    22ea:	ce 01       	movw	r24, r28
    22ec:	01 96       	adiw	r24, 0x01	; 1
    22ee:	0e 94 12 14 	call	0x2824	; 0x2824 <writeChar>
    22f2:	0b c0       	rjmp	.+22     	; 0x230a <MQTTSerialize_connect+0x8e>
    22f4:	62 e3       	ldi	r22, 0x32	; 50
    22f6:	72 e0       	ldi	r23, 0x02	; 2
    22f8:	ce 01       	movw	r24, r28
    22fa:	01 96       	adiw	r24, 0x01	; 1
    22fc:	0e 94 3b 14 	call	0x2876	; 0x2876 <writeCString>
    2300:	63 e0       	ldi	r22, 0x03	; 3
    2302:	ce 01       	movw	r24, r28
    2304:	01 96       	adiw	r24, 0x01	; 1
    2306:	0e 94 12 14 	call	0x2824	; 0x2824 <writeChar>
    230a:	f1 2c       	mov	r15, r1
    230c:	f8 01       	movw	r30, r16
    230e:	87 85       	ldd	r24, Z+15	; 0x0f
    2310:	80 fb       	bst	r24, 0
    2312:	f1 f8       	bld	r15, 1
    2314:	81 e0       	ldi	r24, 0x01	; 1
    2316:	90 89       	ldd	r25, Z+16	; 0x10
    2318:	91 11       	cpse	r25, r1
    231a:	01 c0       	rjmp	.+2      	; 0x231e <MQTTSerialize_connect+0xa2>
    231c:	80 e0       	ldi	r24, 0x00	; 0
    231e:	80 fb       	bst	r24, 0
    2320:	f2 f8       	bld	r15, 2
    2322:	f2 fe       	sbrs	r15, 2
    2324:	0d c0       	rjmp	.+26     	; 0x2340 <MQTTSerialize_connect+0xc4>
    2326:	f8 01       	movw	r30, r16
    2328:	84 a1       	ldd	r24, Z+36	; 0x24
    232a:	83 70       	andi	r24, 0x03	; 3
    232c:	88 0f       	add	r24, r24
    232e:	88 0f       	add	r24, r24
    2330:	88 0f       	add	r24, r24
    2332:	9f 2d       	mov	r25, r15
    2334:	97 7e       	andi	r25, 0xE7	; 231
    2336:	f9 2e       	mov	r15, r25
    2338:	f8 2a       	or	r15, r24
    233a:	83 a1       	ldd	r24, Z+35	; 0x23
    233c:	80 fb       	bst	r24, 0
    233e:	f5 f8       	bld	r15, 5
    2340:	f8 01       	movw	r30, r16
    2342:	85 a1       	ldd	r24, Z+37	; 0x25
    2344:	96 a1       	ldd	r25, Z+38	; 0x26
    2346:	89 2b       	or	r24, r25
    2348:	21 f4       	brne	.+8      	; 0x2352 <MQTTSerialize_connect+0xd6>
    234a:	81 a5       	ldd	r24, Z+41	; 0x29
    234c:	92 a5       	ldd	r25, Z+42	; 0x2a
    234e:	89 2b       	or	r24, r25
    2350:	11 f0       	breq	.+4      	; 0x2356 <MQTTSerialize_connect+0xda>
    2352:	68 94       	set
    2354:	f7 f8       	bld	r15, 7
    2356:	f8 01       	movw	r30, r16
    2358:	83 a5       	ldd	r24, Z+43	; 0x2b
    235a:	94 a5       	ldd	r25, Z+44	; 0x2c
    235c:	89 2b       	or	r24, r25
    235e:	21 f4       	brne	.+8      	; 0x2368 <MQTTSerialize_connect+0xec>
    2360:	87 a5       	ldd	r24, Z+47	; 0x2f
    2362:	90 a9       	ldd	r25, Z+48	; 0x30
    2364:	89 2b       	or	r24, r25
    2366:	11 f0       	breq	.+4      	; 0x236c <MQTTSerialize_connect+0xf0>
    2368:	68 94       	set
    236a:	f6 f8       	bld	r15, 6
    236c:	6f 2d       	mov	r22, r15
    236e:	ce 01       	movw	r24, r28
    2370:	01 96       	adiw	r24, 0x01	; 1
    2372:	0e 94 12 14 	call	0x2824	; 0x2824 <writeChar>
    2376:	f8 01       	movw	r30, r16
    2378:	65 85       	ldd	r22, Z+13	; 0x0d
    237a:	76 85       	ldd	r23, Z+14	; 0x0e
    237c:	ce 01       	movw	r24, r28
    237e:	01 96       	adiw	r24, 0x01	; 1
    2380:	0e 94 1c 14 	call	0x2838	; 0x2838 <writeInt>
    2384:	f8 01       	movw	r30, r16
    2386:	27 81       	ldd	r18, Z+7	; 0x07
    2388:	30 85       	ldd	r19, Z+8	; 0x08
    238a:	41 85       	ldd	r20, Z+9	; 0x09
    238c:	52 85       	ldd	r21, Z+10	; 0x0a
    238e:	63 85       	ldd	r22, Z+11	; 0x0b
    2390:	74 85       	ldd	r23, Z+12	; 0x0c
    2392:	ce 01       	movw	r24, r28
    2394:	01 96       	adiw	r24, 0x01	; 1
    2396:	0e 94 62 14 	call	0x28c4	; 0x28c4 <writeMQTTString>
    239a:	f8 01       	movw	r30, r16
    239c:	80 89       	ldd	r24, Z+16	; 0x10
    239e:	88 23       	and	r24, r24
    23a0:	a9 f0       	breq	.+42     	; 0x23cc <MQTTSerialize_connect+0x150>
    23a2:	27 89       	ldd	r18, Z+23	; 0x17
    23a4:	30 8d       	ldd	r19, Z+24	; 0x18
    23a6:	41 8d       	ldd	r20, Z+25	; 0x19
    23a8:	52 8d       	ldd	r21, Z+26	; 0x1a
    23aa:	63 8d       	ldd	r22, Z+27	; 0x1b
    23ac:	74 8d       	ldd	r23, Z+28	; 0x1c
    23ae:	ce 01       	movw	r24, r28
    23b0:	01 96       	adiw	r24, 0x01	; 1
    23b2:	0e 94 62 14 	call	0x28c4	; 0x28c4 <writeMQTTString>
    23b6:	f8 01       	movw	r30, r16
    23b8:	25 8d       	ldd	r18, Z+29	; 0x1d
    23ba:	36 8d       	ldd	r19, Z+30	; 0x1e
    23bc:	47 8d       	ldd	r20, Z+31	; 0x1f
    23be:	50 a1       	ldd	r21, Z+32	; 0x20
    23c0:	61 a1       	ldd	r22, Z+33	; 0x21
    23c2:	72 a1       	ldd	r23, Z+34	; 0x22
    23c4:	ce 01       	movw	r24, r28
    23c6:	01 96       	adiw	r24, 0x01	; 1
    23c8:	0e 94 62 14 	call	0x28c4	; 0x28c4 <writeMQTTString>
    23cc:	ef 2c       	mov	r14, r15
    23ce:	ff 20       	and	r15, r15
    23d0:	5c f4       	brge	.+22     	; 0x23e8 <MQTTSerialize_connect+0x16c>
    23d2:	f8 01       	movw	r30, r16
    23d4:	25 a1       	ldd	r18, Z+37	; 0x25
    23d6:	36 a1       	ldd	r19, Z+38	; 0x26
    23d8:	47 a1       	ldd	r20, Z+39	; 0x27
    23da:	50 a5       	ldd	r21, Z+40	; 0x28
    23dc:	61 a5       	ldd	r22, Z+41	; 0x29
    23de:	72 a5       	ldd	r23, Z+42	; 0x2a
    23e0:	ce 01       	movw	r24, r28
    23e2:	01 96       	adiw	r24, 0x01	; 1
    23e4:	0e 94 62 14 	call	0x28c4	; 0x28c4 <writeMQTTString>
    23e8:	e6 fe       	sbrs	r14, 6
    23ea:	0b c0       	rjmp	.+22     	; 0x2402 <MQTTSerialize_connect+0x186>
    23ec:	f8 01       	movw	r30, r16
    23ee:	23 a5       	ldd	r18, Z+43	; 0x2b
    23f0:	34 a5       	ldd	r19, Z+44	; 0x2c
    23f2:	45 a5       	ldd	r20, Z+45	; 0x2d
    23f4:	56 a5       	ldd	r21, Z+46	; 0x2e
    23f6:	67 a5       	ldd	r22, Z+47	; 0x2f
    23f8:	70 a9       	ldd	r23, Z+48	; 0x30
    23fa:	ce 01       	movw	r24, r28
    23fc:	01 96       	adiw	r24, 0x01	; 1
    23fe:	0e 94 62 14 	call	0x28c4	; 0x28c4 <writeMQTTString>
    2402:	89 81       	ldd	r24, Y+1	; 0x01
    2404:	9a 81       	ldd	r25, Y+2	; 0x02
    2406:	8c 19       	sub	r24, r12
    2408:	9d 09       	sbc	r25, r13
    240a:	02 c0       	rjmp	.+4      	; 0x2410 <MQTTSerialize_connect+0x194>
    240c:	8e ef       	ldi	r24, 0xFE	; 254
    240e:	9f ef       	ldi	r25, 0xFF	; 255
    2410:	0f 90       	pop	r0
    2412:	0f 90       	pop	r0
    2414:	df 91       	pop	r29
    2416:	cf 91       	pop	r28
    2418:	1f 91       	pop	r17
    241a:	0f 91       	pop	r16
    241c:	ff 90       	pop	r15
    241e:	ef 90       	pop	r14
    2420:	df 90       	pop	r13
    2422:	cf 90       	pop	r12
    2424:	bf 90       	pop	r11
    2426:	af 90       	pop	r10
    2428:	08 95       	ret

0000242a <MQTTDeserialize_connack>:
    242a:	ef 92       	push	r14
    242c:	ff 92       	push	r15
    242e:	0f 93       	push	r16
    2430:	1f 93       	push	r17
    2432:	cf 93       	push	r28
    2434:	df 93       	push	r29
    2436:	00 d0       	rcall	.+0      	; 0x2438 <MQTTDeserialize_connack+0xe>
    2438:	00 d0       	rcall	.+0      	; 0x243a <MQTTDeserialize_connack+0x10>
    243a:	cd b7       	in	r28, 0x3d	; 61
    243c:	de b7       	in	r29, 0x3e	; 62
    243e:	7c 01       	movw	r14, r24
    2440:	8b 01       	movw	r16, r22
    2442:	5a 83       	std	Y+2, r21	; 0x02
    2444:	49 83       	std	Y+1, r20	; 0x01
    2446:	ce 01       	movw	r24, r28
    2448:	01 96       	adiw	r24, 0x01	; 1
    244a:	0e 94 0a 14 	call	0x2814	; 0x2814 <readChar>
    244e:	80 7f       	andi	r24, 0xF0	; 240
    2450:	80 32       	cpi	r24, 0x20	; 32
    2452:	21 f5       	brne	.+72     	; 0x249c <MQTTDeserialize_connack+0x72>
    2454:	be 01       	movw	r22, r28
    2456:	6d 5f       	subi	r22, 0xFD	; 253
    2458:	7f 4f       	sbci	r23, 0xFF	; 255
    245a:	89 81       	ldd	r24, Y+1	; 0x01
    245c:	9a 81       	ldd	r25, Y+2	; 0x02
    245e:	0e 94 f1 13 	call	0x27e2	; 0x27e2 <MQTTPacket_decodeBuf>
    2462:	29 81       	ldd	r18, Y+1	; 0x01
    2464:	3a 81       	ldd	r19, Y+2	; 0x02
    2466:	28 0f       	add	r18, r24
    2468:	39 1f       	adc	r19, r25
    246a:	3a 83       	std	Y+2, r19	; 0x02
    246c:	29 83       	std	Y+1, r18	; 0x01
    246e:	2b 81       	ldd	r18, Y+3	; 0x03
    2470:	3c 81       	ldd	r19, Y+4	; 0x04
    2472:	22 30       	cpi	r18, 0x02	; 2
    2474:	31 05       	cpc	r19, r1
    2476:	a4 f0       	brlt	.+40     	; 0x24a0 <MQTTDeserialize_connack+0x76>
    2478:	ce 01       	movw	r24, r28
    247a:	01 96       	adiw	r24, 0x01	; 1
    247c:	0e 94 0a 14 	call	0x2814	; 0x2814 <readChar>
    2480:	87 fb       	bst	r24, 7
    2482:	88 27       	eor	r24, r24
    2484:	80 f9       	bld	r24, 0
    2486:	f7 01       	movw	r30, r14
    2488:	80 83       	st	Z, r24
    248a:	ce 01       	movw	r24, r28
    248c:	01 96       	adiw	r24, 0x01	; 1
    248e:	0e 94 0a 14 	call	0x2814	; 0x2814 <readChar>
    2492:	f8 01       	movw	r30, r16
    2494:	80 83       	st	Z, r24
    2496:	81 e0       	ldi	r24, 0x01	; 1
    2498:	90 e0       	ldi	r25, 0x00	; 0
    249a:	02 c0       	rjmp	.+4      	; 0x24a0 <MQTTDeserialize_connack+0x76>
    249c:	80 e0       	ldi	r24, 0x00	; 0
    249e:	90 e0       	ldi	r25, 0x00	; 0
    24a0:	0f 90       	pop	r0
    24a2:	0f 90       	pop	r0
    24a4:	0f 90       	pop	r0
    24a6:	0f 90       	pop	r0
    24a8:	df 91       	pop	r29
    24aa:	cf 91       	pop	r28
    24ac:	1f 91       	pop	r17
    24ae:	0f 91       	pop	r16
    24b0:	ff 90       	pop	r15
    24b2:	ef 90       	pop	r14
    24b4:	08 95       	ret

000024b6 <MQTTSerialize_zero>:
    24b6:	0f 93       	push	r16
    24b8:	1f 93       	push	r17
    24ba:	cf 93       	push	r28
    24bc:	df 93       	push	r29
    24be:	00 d0       	rcall	.+0      	; 0x24c0 <MQTTSerialize_zero+0xa>
    24c0:	cd b7       	in	r28, 0x3d	; 61
    24c2:	de b7       	in	r29, 0x3e	; 62
    24c4:	9a 83       	std	Y+2, r25	; 0x02
    24c6:	89 83       	std	Y+1, r24	; 0x01
    24c8:	62 30       	cpi	r22, 0x02	; 2
    24ca:	71 05       	cpc	r23, r1
    24cc:	ac f0       	brlt	.+42     	; 0x24f8 <MQTTSerialize_zero+0x42>
    24ce:	8c 01       	movw	r16, r24
    24d0:	64 2f       	mov	r22, r20
    24d2:	62 95       	swap	r22
    24d4:	60 7f       	andi	r22, 0xF0	; 240
    24d6:	ce 01       	movw	r24, r28
    24d8:	01 96       	adiw	r24, 0x01	; 1
    24da:	0e 94 12 14 	call	0x2824	; 0x2824 <writeChar>
    24de:	60 e0       	ldi	r22, 0x00	; 0
    24e0:	70 e0       	ldi	r23, 0x00	; 0
    24e2:	89 81       	ldd	r24, Y+1	; 0x01
    24e4:	9a 81       	ldd	r25, Y+2	; 0x02
    24e6:	0e 94 74 13 	call	0x26e8	; 0x26e8 <MQTTPacket_encode>
    24ea:	29 81       	ldd	r18, Y+1	; 0x01
    24ec:	3a 81       	ldd	r19, Y+2	; 0x02
    24ee:	82 0f       	add	r24, r18
    24f0:	93 1f       	adc	r25, r19
    24f2:	80 1b       	sub	r24, r16
    24f4:	91 0b       	sbc	r25, r17
    24f6:	02 c0       	rjmp	.+4      	; 0x24fc <MQTTSerialize_zero+0x46>
    24f8:	8e ef       	ldi	r24, 0xFE	; 254
    24fa:	9f ef       	ldi	r25, 0xFF	; 255
    24fc:	0f 90       	pop	r0
    24fe:	0f 90       	pop	r0
    2500:	df 91       	pop	r29
    2502:	cf 91       	pop	r28
    2504:	1f 91       	pop	r17
    2506:	0f 91       	pop	r16
    2508:	08 95       	ret

0000250a <MQTTSerialize_pingreq>:
  * @param buflen the length in bytes of the supplied buffer, to avoid overruns
  * @return serialized length, or error if 0
  */
int MQTTSerialize_pingreq(unsigned char* buf, int buflen)
{
	return MQTTSerialize_zero(buf, buflen, PINGREQ);
    250a:	4c e0       	ldi	r20, 0x0C	; 12
    250c:	0e 94 5b 12 	call	0x24b6	; 0x24b6 <MQTTSerialize_zero>
}
    2510:	08 95       	ret

00002512 <MQTTDeserialize_publish>:
  * @param buflen the length in bytes of the data in the supplied buffer
  * @return error code.  1 is success
  */
int MQTTDeserialize_publish(unsigned char* dup, int* qos, unsigned char* retained, unsigned short* packetid, MQTTString* topicName,
		unsigned char** payload, int* payloadlen, unsigned char* buf, int buflen)
{
    2512:	2f 92       	push	r2
    2514:	3f 92       	push	r3
    2516:	4f 92       	push	r4
    2518:	5f 92       	push	r5
    251a:	6f 92       	push	r6
    251c:	7f 92       	push	r7
    251e:	8f 92       	push	r8
    2520:	9f 92       	push	r9
    2522:	af 92       	push	r10
    2524:	bf 92       	push	r11
    2526:	cf 92       	push	r12
    2528:	df 92       	push	r13
    252a:	ef 92       	push	r14
    252c:	ff 92       	push	r15
    252e:	0f 93       	push	r16
    2530:	1f 93       	push	r17
    2532:	cf 93       	push	r28
    2534:	df 93       	push	r29
    2536:	00 d0       	rcall	.+0      	; 0x2538 <MQTTDeserialize_publish+0x26>
    2538:	00 d0       	rcall	.+0      	; 0x253a <MQTTDeserialize_publish+0x28>
    253a:	cd b7       	in	r28, 0x3d	; 61
    253c:	de b7       	in	r29, 0x3e	; 62
    253e:	3c 01       	movw	r6, r24
    2540:	4b 01       	movw	r8, r22
    2542:	2a 01       	movw	r4, r20
    2544:	19 01       	movw	r2, r18
	MQTTHeader header = {0};
	unsigned char* curdata = buf;
    2546:	ba 82       	std	Y+2, r11	; 0x02
    2548:	a9 82       	std	Y+1, r10	; 0x01
	unsigned char* enddata = NULL;
	int rc = 0;
	int mylen = 0;
    254a:	1c 82       	std	Y+4, r1	; 0x04
    254c:	1b 82       	std	Y+3, r1	; 0x03

	FUNC_ENTRY;
	header.byte = readChar(&curdata);
    254e:	ce 01       	movw	r24, r28
    2550:	01 96       	adiw	r24, 0x01	; 1
    2552:	0e 94 0a 14 	call	0x2814	; 0x2814 <readChar>
	if (header.bits.type != PUBLISH)
    2556:	98 2f       	mov	r25, r24
    2558:	90 7f       	andi	r25, 0xF0	; 240
    255a:	90 33       	cpi	r25, 0x30	; 48
    255c:	09 f0       	breq	.+2      	; 0x2560 <MQTTDeserialize_publish+0x4e>
    255e:	4d c0       	rjmp	.+154    	; 0x25fa <MQTTDeserialize_publish+0xe8>
		goto exit;
	*dup = header.bits.dup;
    2560:	83 fb       	bst	r24, 3
    2562:	99 27       	eor	r25, r25
    2564:	90 f9       	bld	r25, 0
    2566:	f3 01       	movw	r30, r6
    2568:	90 83       	st	Z, r25
	*qos = header.bits.qos;
    256a:	28 2f       	mov	r18, r24
    256c:	26 95       	lsr	r18
    256e:	23 70       	andi	r18, 0x03	; 3
    2570:	30 e0       	ldi	r19, 0x00	; 0
    2572:	f4 01       	movw	r30, r8
    2574:	31 83       	std	Z+1, r19	; 0x01
    2576:	20 83       	st	Z, r18
	*retained = header.bits.retain;
    2578:	81 70       	andi	r24, 0x01	; 1
    257a:	f2 01       	movw	r30, r4
    257c:	80 83       	st	Z, r24

	curdata += (rc = MQTTPacket_decodeBuf(curdata, &mylen)); /* read remaining length */
    257e:	be 01       	movw	r22, r28
    2580:	6d 5f       	subi	r22, 0xFD	; 253
    2582:	7f 4f       	sbci	r23, 0xFF	; 255
    2584:	89 81       	ldd	r24, Y+1	; 0x01
    2586:	9a 81       	ldd	r25, Y+2	; 0x02
    2588:	0e 94 f1 13 	call	0x27e2	; 0x27e2 <MQTTPacket_decodeBuf>
    258c:	3c 01       	movw	r6, r24
    258e:	a9 80       	ldd	r10, Y+1	; 0x01
    2590:	ba 80       	ldd	r11, Y+2	; 0x02
    2592:	a8 0e       	add	r10, r24
    2594:	b9 1e       	adc	r11, r25
    2596:	ba 82       	std	Y+2, r11	; 0x02
    2598:	a9 82       	std	Y+1, r10	; 0x01
	enddata = curdata + mylen;
    259a:	8b 81       	ldd	r24, Y+3	; 0x03
    259c:	9c 81       	ldd	r25, Y+4	; 0x04
    259e:	a8 0e       	add	r10, r24
    25a0:	b9 1e       	adc	r11, r25

	if (!readMQTTLenString(topicName, &curdata, enddata) ||
    25a2:	a5 01       	movw	r20, r10
    25a4:	be 01       	movw	r22, r28
    25a6:	6f 5f       	subi	r22, 0xFF	; 255
    25a8:	7f 4f       	sbci	r23, 0xFF	; 255
    25aa:	c8 01       	movw	r24, r16
    25ac:	0e 94 a5 14 	call	0x294a	; 0x294a <readMQTTLenString>
    25b0:	89 2b       	or	r24, r25
    25b2:	29 f1       	breq	.+74     	; 0x25fe <MQTTDeserialize_publish+0xec>
    25b4:	89 81       	ldd	r24, Y+1	; 0x01
    25b6:	9a 81       	ldd	r25, Y+2	; 0x02
    25b8:	95 01       	movw	r18, r10
    25ba:	28 1b       	sub	r18, r24
    25bc:	39 0b       	sbc	r19, r25
    25be:	c9 01       	movw	r24, r18
    25c0:	99 23       	and	r25, r25
    25c2:	ec f0       	brlt	.+58     	; 0x25fe <MQTTDeserialize_publish+0xec>
		enddata - curdata < 0) /* do we have enough data to read the protocol version byte? */
		goto exit;

	if (*qos > 0)
    25c4:	f4 01       	movw	r30, r8
    25c6:	80 81       	ld	r24, Z
    25c8:	91 81       	ldd	r25, Z+1	; 0x01
    25ca:	18 16       	cp	r1, r24
    25cc:	19 06       	cpc	r1, r25
    25ce:	3c f4       	brge	.+14     	; 0x25de <MQTTDeserialize_publish+0xcc>
		*packetid = readInt(&curdata);
    25d0:	ce 01       	movw	r24, r28
    25d2:	01 96       	adiw	r24, 0x01	; 1
    25d4:	0e 94 fa 13 	call	0x27f4	; 0x27f4 <readInt>
    25d8:	f1 01       	movw	r30, r2
    25da:	91 83       	std	Z+1, r25	; 0x01
    25dc:	80 83       	st	Z, r24

	*payloadlen = enddata - curdata;
    25de:	89 81       	ldd	r24, Y+1	; 0x01
    25e0:	9a 81       	ldd	r25, Y+2	; 0x02
    25e2:	a8 1a       	sub	r10, r24
    25e4:	b9 0a       	sbc	r11, r25
    25e6:	f6 01       	movw	r30, r12
    25e8:	b1 82       	std	Z+1, r11	; 0x01
    25ea:	a0 82       	st	Z, r10
	*payload = curdata;
    25ec:	f7 01       	movw	r30, r14
    25ee:	91 83       	std	Z+1, r25	; 0x01
    25f0:	80 83       	st	Z, r24
	rc = 1;
    25f2:	66 24       	eor	r6, r6
    25f4:	63 94       	inc	r6
    25f6:	71 2c       	mov	r7, r1
    25f8:	02 c0       	rjmp	.+4      	; 0x25fe <MQTTDeserialize_publish+0xec>
		unsigned char** payload, int* payloadlen, unsigned char* buf, int buflen)
{
	MQTTHeader header = {0};
	unsigned char* curdata = buf;
	unsigned char* enddata = NULL;
	int rc = 0;
    25fa:	61 2c       	mov	r6, r1
    25fc:	71 2c       	mov	r7, r1
	*payload = curdata;
	rc = 1;
exit:
	FUNC_EXIT_RC(rc);
	return rc;
}
    25fe:	c3 01       	movw	r24, r6
    2600:	0f 90       	pop	r0
    2602:	0f 90       	pop	r0
    2604:	0f 90       	pop	r0
    2606:	0f 90       	pop	r0
    2608:	df 91       	pop	r29
    260a:	cf 91       	pop	r28
    260c:	1f 91       	pop	r17
    260e:	0f 91       	pop	r16
    2610:	ff 90       	pop	r15
    2612:	ef 90       	pop	r14
    2614:	df 90       	pop	r13
    2616:	cf 90       	pop	r12
    2618:	bf 90       	pop	r11
    261a:	af 90       	pop	r10
    261c:	9f 90       	pop	r9
    261e:	8f 90       	pop	r8
    2620:	7f 90       	pop	r7
    2622:	6f 90       	pop	r6
    2624:	5f 90       	pop	r5
    2626:	4f 90       	pop	r4
    2628:	3f 90       	pop	r3
    262a:	2f 90       	pop	r2
    262c:	08 95       	ret

0000262e <MQTTDeserialize_ack>:
  * @param buf the raw buffer data, of the correct length determined by the remaining length field
  * @param buflen the length in bytes of the data in the supplied buffer
  * @return error code.  1 is success, 0 is failure
  */
int MQTTDeserialize_ack(unsigned char* packettype, unsigned char* dup, unsigned short* packetid, unsigned char* buf, int buflen)
{
    262e:	cf 92       	push	r12
    2630:	df 92       	push	r13
    2632:	ef 92       	push	r14
    2634:	ff 92       	push	r15
    2636:	0f 93       	push	r16
    2638:	1f 93       	push	r17
    263a:	cf 93       	push	r28
    263c:	df 93       	push	r29
    263e:	00 d0       	rcall	.+0      	; 0x2640 <MQTTDeserialize_ack+0x12>
    2640:	00 d0       	rcall	.+0      	; 0x2642 <MQTTDeserialize_ack+0x14>
    2642:	cd b7       	in	r28, 0x3d	; 61
    2644:	de b7       	in	r29, 0x3e	; 62
    2646:	7c 01       	movw	r14, r24
    2648:	6b 01       	movw	r12, r22
    264a:	8a 01       	movw	r16, r20
	MQTTHeader header = {0};
	unsigned char* curdata = buf;
    264c:	3a 83       	std	Y+2, r19	; 0x02
    264e:	29 83       	std	Y+1, r18	; 0x01
	unsigned char* enddata = NULL;
	int rc = 0;
	int mylen;

	FUNC_ENTRY;
	header.byte = readChar(&curdata);
    2650:	ce 01       	movw	r24, r28
    2652:	01 96       	adiw	r24, 0x01	; 1
    2654:	0e 94 0a 14 	call	0x2814	; 0x2814 <readChar>
	*dup = header.bits.dup;
    2658:	83 fb       	bst	r24, 3
    265a:	99 27       	eor	r25, r25
    265c:	90 f9       	bld	r25, 0
    265e:	f6 01       	movw	r30, r12
    2660:	90 83       	st	Z, r25
	*packettype = header.bits.type;
    2662:	82 95       	swap	r24
    2664:	8f 70       	andi	r24, 0x0F	; 15
    2666:	f7 01       	movw	r30, r14
    2668:	80 83       	st	Z, r24

	curdata += (rc = MQTTPacket_decodeBuf(curdata, &mylen)); /* read remaining length */
    266a:	be 01       	movw	r22, r28
    266c:	6d 5f       	subi	r22, 0xFD	; 253
    266e:	7f 4f       	sbci	r23, 0xFF	; 255
    2670:	89 81       	ldd	r24, Y+1	; 0x01
    2672:	9a 81       	ldd	r25, Y+2	; 0x02
    2674:	0e 94 f1 13 	call	0x27e2	; 0x27e2 <MQTTPacket_decodeBuf>
    2678:	29 81       	ldd	r18, Y+1	; 0x01
    267a:	3a 81       	ldd	r19, Y+2	; 0x02
    267c:	28 0f       	add	r18, r24
    267e:	39 1f       	adc	r19, r25
    2680:	3a 83       	std	Y+2, r19	; 0x02
    2682:	29 83       	std	Y+1, r18	; 0x01
	enddata = curdata + mylen;

	if (enddata - curdata < 2)
    2684:	2b 81       	ldd	r18, Y+3	; 0x03
    2686:	3c 81       	ldd	r19, Y+4	; 0x04
    2688:	22 30       	cpi	r18, 0x02	; 2
    268a:	31 05       	cpc	r19, r1
    268c:	4c f0       	brlt	.+18     	; 0x26a0 <MQTTDeserialize_ack+0x72>
		goto exit;
	*packetid = readInt(&curdata);
    268e:	ce 01       	movw	r24, r28
    2690:	01 96       	adiw	r24, 0x01	; 1
    2692:	0e 94 fa 13 	call	0x27f4	; 0x27f4 <readInt>
    2696:	f8 01       	movw	r30, r16
    2698:	91 83       	std	Z+1, r25	; 0x01
    269a:	80 83       	st	Z, r24

	rc = 1;
    269c:	81 e0       	ldi	r24, 0x01	; 1
    269e:	90 e0       	ldi	r25, 0x00	; 0
exit:
	FUNC_EXIT_RC(rc);
	return rc;
}
    26a0:	0f 90       	pop	r0
    26a2:	0f 90       	pop	r0
    26a4:	0f 90       	pop	r0
    26a6:	0f 90       	pop	r0
    26a8:	df 91       	pop	r29
    26aa:	cf 91       	pop	r28
    26ac:	1f 91       	pop	r17
    26ae:	0f 91       	pop	r16
    26b0:	ff 90       	pop	r15
    26b2:	ef 90       	pop	r14
    26b4:	df 90       	pop	r13
    26b6:	cf 90       	pop	r12
    26b8:	08 95       	ret

000026ba <bufchar>:

int getLenStringLen(char* ptr)
{
	int len = 256*((unsigned char)(*ptr)) + (unsigned char)(*(ptr+1));
	return len;
}
    26ba:	dc 01       	movw	r26, r24
    26bc:	16 16       	cp	r1, r22
    26be:	17 06       	cpc	r1, r23
    26c0:	8c f4       	brge	.+34     	; 0x26e4 <bufchar+0x2a>
    26c2:	e0 91 b1 03 	lds	r30, 0x03B1	; 0x8003b1 <bufptr>
    26c6:	f0 91 b2 03 	lds	r31, 0x03B2	; 0x8003b2 <bufptr+0x1>
    26ca:	af 01       	movw	r20, r30
    26cc:	46 0f       	add	r20, r22
    26ce:	57 1f       	adc	r21, r23
    26d0:	9a 01       	movw	r18, r20
    26d2:	91 91       	ld	r25, Z+
    26d4:	9c 93       	st	X, r25
    26d6:	e2 17       	cp	r30, r18
    26d8:	f3 07       	cpc	r31, r19
    26da:	d9 f7       	brne	.-10     	; 0x26d2 <bufchar+0x18>
    26dc:	50 93 b2 03 	sts	0x03B2, r21	; 0x8003b2 <bufptr+0x1>
    26e0:	40 93 b1 03 	sts	0x03B1, r20	; 0x8003b1 <bufptr>
    26e4:	cb 01       	movw	r24, r22
    26e6:	08 95       	ret

000026e8 <MQTTPacket_encode>:
    26e8:	dc 01       	movw	r26, r24
    26ea:	e0 e0       	ldi	r30, 0x00	; 0
    26ec:	f0 e0       	ldi	r31, 0x00	; 0
    26ee:	9b 01       	movw	r18, r22
    26f0:	2f 77       	andi	r18, 0x7F	; 127
    26f2:	30 78       	andi	r19, 0x80	; 128
    26f4:	33 23       	and	r19, r19
    26f6:	34 f4       	brge	.+12     	; 0x2704 <MQTTPacket_encode+0x1c>
    26f8:	21 50       	subi	r18, 0x01	; 1
    26fa:	31 09       	sbc	r19, r1
    26fc:	20 68       	ori	r18, 0x80	; 128
    26fe:	3f 6f       	ori	r19, 0xFF	; 255
    2700:	2f 5f       	subi	r18, 0xFF	; 255
    2702:	3f 4f       	sbci	r19, 0xFF	; 255
    2704:	ab 01       	movw	r20, r22
    2706:	77 23       	and	r23, r23
    2708:	14 f4       	brge	.+4      	; 0x270e <MQTTPacket_encode+0x26>
    270a:	41 58       	subi	r20, 0x81	; 129
    270c:	5f 4f       	sbci	r21, 0xFF	; 255
    270e:	ba 01       	movw	r22, r20
    2710:	66 0f       	add	r22, r22
    2712:	67 2f       	mov	r22, r23
    2714:	66 1f       	adc	r22, r22
    2716:	77 0b       	sbc	r23, r23
    2718:	16 16       	cp	r1, r22
    271a:	17 06       	cpc	r1, r23
    271c:	24 f4       	brge	.+8      	; 0x2726 <MQTTPacket_encode+0x3e>
    271e:	31 96       	adiw	r30, 0x01	; 1
    2720:	20 68       	ori	r18, 0x80	; 128
    2722:	2d 93       	st	X+, r18
    2724:	e4 cf       	rjmp	.-56     	; 0x26ee <MQTTPacket_encode+0x6>
    2726:	dc 01       	movw	r26, r24
    2728:	ae 0f       	add	r26, r30
    272a:	bf 1f       	adc	r27, r31
    272c:	2c 93       	st	X, r18
    272e:	cf 01       	movw	r24, r30
    2730:	01 96       	adiw	r24, 0x01	; 1
    2732:	08 95       	ret

00002734 <MQTTPacket_decode>:
    2734:	af 92       	push	r10
    2736:	bf 92       	push	r11
    2738:	cf 92       	push	r12
    273a:	df 92       	push	r13
    273c:	ef 92       	push	r14
    273e:	ff 92       	push	r15
    2740:	0f 93       	push	r16
    2742:	1f 93       	push	r17
    2744:	cf 93       	push	r28
    2746:	df 93       	push	r29
    2748:	1f 92       	push	r1
    274a:	cd b7       	in	r28, 0x3d	; 61
    274c:	de b7       	in	r29, 0x3e	; 62
    274e:	5c 01       	movw	r10, r24
    2750:	6b 01       	movw	r12, r22
    2752:	fb 01       	movw	r30, r22
    2754:	11 82       	std	Z+1, r1	; 0x01
    2756:	10 82       	st	Z, r1
    2758:	01 e0       	ldi	r16, 0x01	; 1
    275a:	10 e0       	ldi	r17, 0x00	; 0
    275c:	ee 24       	eor	r14, r14
    275e:	e3 94       	inc	r14
    2760:	f1 2c       	mov	r15, r1
    2762:	05 c0       	rjmp	.+10     	; 0x276e <MQTTPacket_decode+0x3a>
    2764:	0f 5f       	subi	r16, 0xFF	; 255
    2766:	1f 4f       	sbci	r17, 0xFF	; 255
    2768:	05 30       	cpi	r16, 0x05	; 5
    276a:	11 05       	cpc	r17, r1
    276c:	f1 f0       	breq	.+60     	; 0x27aa <MQTTPacket_decode+0x76>
    276e:	61 e0       	ldi	r22, 0x01	; 1
    2770:	70 e0       	ldi	r23, 0x00	; 0
    2772:	ce 01       	movw	r24, r28
    2774:	01 96       	adiw	r24, 0x01	; 1
    2776:	f5 01       	movw	r30, r10
    2778:	09 95       	icall
    277a:	01 97       	sbiw	r24, 0x01	; 1
    277c:	b1 f4       	brne	.+44     	; 0x27aa <MQTTPacket_decode+0x76>
    277e:	29 81       	ldd	r18, Y+1	; 0x01
    2780:	32 2f       	mov	r19, r18
    2782:	3f 77       	andi	r19, 0x7F	; 127
    2784:	3e 9d       	mul	r19, r14
    2786:	c0 01       	movw	r24, r0
    2788:	3f 9d       	mul	r19, r15
    278a:	90 0d       	add	r25, r0
    278c:	11 24       	eor	r1, r1
    278e:	f6 01       	movw	r30, r12
    2790:	40 81       	ld	r20, Z
    2792:	51 81       	ldd	r21, Z+1	; 0x01
    2794:	84 0f       	add	r24, r20
    2796:	95 1f       	adc	r25, r21
    2798:	91 83       	std	Z+1, r25	; 0x01
    279a:	80 83       	st	Z, r24
    279c:	f6 94       	lsr	r15
    279e:	fe 2c       	mov	r15, r14
    27a0:	ee 24       	eor	r14, r14
    27a2:	f7 94       	ror	r15
    27a4:	e7 94       	ror	r14
    27a6:	22 23       	and	r18, r18
    27a8:	ec f2       	brlt	.-70     	; 0x2764 <MQTTPacket_decode+0x30>
    27aa:	c8 01       	movw	r24, r16
    27ac:	0f 90       	pop	r0
    27ae:	df 91       	pop	r29
    27b0:	cf 91       	pop	r28
    27b2:	1f 91       	pop	r17
    27b4:	0f 91       	pop	r16
    27b6:	ff 90       	pop	r15
    27b8:	ef 90       	pop	r14
    27ba:	df 90       	pop	r13
    27bc:	cf 90       	pop	r12
    27be:	bf 90       	pop	r11
    27c0:	af 90       	pop	r10
    27c2:	08 95       	ret

000027c4 <MQTTPacket_len>:
    27c4:	9c 01       	movw	r18, r24
    27c6:	2f 5f       	subi	r18, 0xFF	; 255
    27c8:	3f 4f       	sbci	r19, 0xFF	; 255
    27ca:	20 38       	cpi	r18, 0x80	; 128
    27cc:	31 05       	cpc	r19, r1
    27ce:	14 f4       	brge	.+4      	; 0x27d4 <MQTTPacket_len+0x10>
    27d0:	02 96       	adiw	r24, 0x02	; 2
    27d2:	08 95       	ret
    27d4:	21 15       	cp	r18, r1
    27d6:	30 44       	sbci	r19, 0x40	; 64
    27d8:	14 f4       	brge	.+4      	; 0x27de <MQTTPacket_len+0x1a>
    27da:	03 96       	adiw	r24, 0x03	; 3
    27dc:	08 95       	ret
    27de:	04 96       	adiw	r24, 0x04	; 4
    27e0:	08 95       	ret

000027e2 <MQTTPacket_decodeBuf>:
    27e2:	90 93 b2 03 	sts	0x03B2, r25	; 0x8003b2 <bufptr+0x1>
    27e6:	80 93 b1 03 	sts	0x03B1, r24	; 0x8003b1 <bufptr>
    27ea:	8d e5       	ldi	r24, 0x5D	; 93
    27ec:	93 e1       	ldi	r25, 0x13	; 19
    27ee:	0e 94 9a 13 	call	0x2734	; 0x2734 <MQTTPacket_decode>
    27f2:	08 95       	ret

000027f4 <readInt>:
    27f4:	dc 01       	movw	r26, r24
    27f6:	ed 91       	ld	r30, X+
    27f8:	fc 91       	ld	r31, X
    27fa:	11 97       	sbiw	r26, 0x01	; 1
    27fc:	20 81       	ld	r18, Z
    27fe:	30 e0       	ldi	r19, 0x00	; 0
    2800:	32 2f       	mov	r19, r18
    2802:	22 27       	eor	r18, r18
    2804:	41 81       	ldd	r20, Z+1	; 0x01
    2806:	32 96       	adiw	r30, 0x02	; 2
    2808:	ed 93       	st	X+, r30
    280a:	fc 93       	st	X, r31
    280c:	c9 01       	movw	r24, r18
    280e:	84 0f       	add	r24, r20
    2810:	91 1d       	adc	r25, r1
    2812:	08 95       	ret

00002814 <readChar>:
    2814:	dc 01       	movw	r26, r24
    2816:	ed 91       	ld	r30, X+
    2818:	fc 91       	ld	r31, X
    281a:	11 97       	sbiw	r26, 0x01	; 1
    281c:	81 91       	ld	r24, Z+
    281e:	ed 93       	st	X+, r30
    2820:	fc 93       	st	X, r31
    2822:	08 95       	ret

00002824 <writeChar>:
    2824:	fc 01       	movw	r30, r24
    2826:	a0 81       	ld	r26, Z
    2828:	b1 81       	ldd	r27, Z+1	; 0x01
    282a:	6c 93       	st	X, r22
    282c:	80 81       	ld	r24, Z
    282e:	91 81       	ldd	r25, Z+1	; 0x01
    2830:	01 96       	adiw	r24, 0x01	; 1
    2832:	91 83       	std	Z+1, r25	; 0x01
    2834:	80 83       	st	Z, r24
    2836:	08 95       	ret

00002838 <writeInt>:
    2838:	fc 01       	movw	r30, r24
    283a:	a0 81       	ld	r26, Z
    283c:	b1 81       	ldd	r27, Z+1	; 0x01
    283e:	cb 01       	movw	r24, r22
    2840:	77 23       	and	r23, r23
    2842:	14 f4       	brge	.+4      	; 0x2848 <writeInt+0x10>
    2844:	81 50       	subi	r24, 0x01	; 1
    2846:	9f 4f       	sbci	r25, 0xFF	; 255
    2848:	9c 93       	st	X, r25
    284a:	a0 81       	ld	r26, Z
    284c:	b1 81       	ldd	r27, Z+1	; 0x01
    284e:	cd 01       	movw	r24, r26
    2850:	01 96       	adiw	r24, 0x01	; 1
    2852:	91 83       	std	Z+1, r25	; 0x01
    2854:	80 83       	st	Z, r24
    2856:	70 78       	andi	r23, 0x80	; 128
    2858:	77 23       	and	r23, r23
    285a:	2c f4       	brge	.+10     	; 0x2866 <writeInt+0x2e>
    285c:	61 50       	subi	r22, 0x01	; 1
    285e:	71 09       	sbc	r23, r1
    2860:	7f 6f       	ori	r23, 0xFF	; 255
    2862:	6f 5f       	subi	r22, 0xFF	; 255
    2864:	7f 4f       	sbci	r23, 0xFF	; 255
    2866:	11 96       	adiw	r26, 0x01	; 1
    2868:	6c 93       	st	X, r22
    286a:	80 81       	ld	r24, Z
    286c:	91 81       	ldd	r25, Z+1	; 0x01
    286e:	01 96       	adiw	r24, 0x01	; 1
    2870:	91 83       	std	Z+1, r25	; 0x01
    2872:	80 83       	st	Z, r24
    2874:	08 95       	ret

00002876 <writeCString>:
    2876:	ef 92       	push	r14
    2878:	ff 92       	push	r15
    287a:	0f 93       	push	r16
    287c:	1f 93       	push	r17
    287e:	cf 93       	push	r28
    2880:	df 93       	push	r29
    2882:	8c 01       	movw	r16, r24
    2884:	7b 01       	movw	r14, r22
    2886:	eb 01       	movw	r28, r22
    2888:	09 90       	ld	r0, Y+
    288a:	00 20       	and	r0, r0
    288c:	e9 f7       	brne	.-6      	; 0x2888 <writeCString+0x12>
    288e:	21 97       	sbiw	r28, 0x01	; 1
    2890:	c6 1b       	sub	r28, r22
    2892:	d7 0b       	sbc	r29, r23
    2894:	be 01       	movw	r22, r28
    2896:	0e 94 1c 14 	call	0x2838	; 0x2838 <writeInt>
    289a:	ae 01       	movw	r20, r28
    289c:	b7 01       	movw	r22, r14
    289e:	f8 01       	movw	r30, r16
    28a0:	80 81       	ld	r24, Z
    28a2:	91 81       	ldd	r25, Z+1	; 0x01
    28a4:	0e 94 4e 1d 	call	0x3a9c	; 0x3a9c <memcpy>
    28a8:	f8 01       	movw	r30, r16
    28aa:	80 81       	ld	r24, Z
    28ac:	91 81       	ldd	r25, Z+1	; 0x01
    28ae:	c8 0f       	add	r28, r24
    28b0:	d9 1f       	adc	r29, r25
    28b2:	d1 83       	std	Z+1, r29	; 0x01
    28b4:	c0 83       	st	Z, r28
    28b6:	df 91       	pop	r29
    28b8:	cf 91       	pop	r28
    28ba:	1f 91       	pop	r17
    28bc:	0f 91       	pop	r16
    28be:	ff 90       	pop	r15
    28c0:	ef 90       	pop	r14
    28c2:	08 95       	ret

000028c4 <writeMQTTString>:


void writeMQTTString(unsigned char** pptr, MQTTString mqttstring)
{
    28c4:	ef 92       	push	r14
    28c6:	ff 92       	push	r15
    28c8:	0f 93       	push	r16
    28ca:	1f 93       	push	r17
    28cc:	cf 93       	push	r28
    28ce:	df 93       	push	r29
    28d0:	00 d0       	rcall	.+0      	; 0x28d2 <writeMQTTString+0xe>
    28d2:	00 d0       	rcall	.+0      	; 0x28d4 <writeMQTTString+0x10>
    28d4:	00 d0       	rcall	.+0      	; 0x28d6 <writeMQTTString+0x12>
    28d6:	cd b7       	in	r28, 0x3d	; 61
    28d8:	de b7       	in	r29, 0x3e	; 62
    28da:	7c 01       	movw	r14, r24
    28dc:	29 83       	std	Y+1, r18	; 0x01
    28de:	3a 83       	std	Y+2, r19	; 0x02
    28e0:	4b 83       	std	Y+3, r20	; 0x03
    28e2:	5c 83       	std	Y+4, r21	; 0x04
    28e4:	6d 83       	std	Y+5, r22	; 0x05
    28e6:	7e 83       	std	Y+6, r23	; 0x06
    28e8:	0b 81       	ldd	r16, Y+3	; 0x03
    28ea:	1c 81       	ldd	r17, Y+4	; 0x04
	if (mqttstring.lenstring.len > 0)
    28ec:	10 16       	cp	r1, r16
    28ee:	11 06       	cpc	r1, r17
    28f0:	9c f4       	brge	.+38     	; 0x2918 <writeMQTTString+0x54>
	{
		writeInt(pptr, mqttstring.lenstring.len);
    28f2:	b8 01       	movw	r22, r16
    28f4:	0e 94 1c 14 	call	0x2838	; 0x2838 <writeInt>
		memcpy(*pptr, mqttstring.lenstring.data, mqttstring.lenstring.len);
    28f8:	6d 81       	ldd	r22, Y+5	; 0x05
    28fa:	7e 81       	ldd	r23, Y+6	; 0x06
    28fc:	a8 01       	movw	r20, r16
    28fe:	f7 01       	movw	r30, r14
    2900:	80 81       	ld	r24, Z
    2902:	91 81       	ldd	r25, Z+1	; 0x01
    2904:	0e 94 4e 1d 	call	0x3a9c	; 0x3a9c <memcpy>
		*pptr += mqttstring.lenstring.len;
    2908:	f7 01       	movw	r30, r14
    290a:	80 81       	ld	r24, Z
    290c:	91 81       	ldd	r25, Z+1	; 0x01
    290e:	08 0f       	add	r16, r24
    2910:	19 1f       	adc	r17, r25
    2912:	11 83       	std	Z+1, r17	; 0x01
    2914:	00 83       	st	Z, r16
    2916:	0c c0       	rjmp	.+24     	; 0x2930 <writeMQTTString+0x6c>
    2918:	69 81       	ldd	r22, Y+1	; 0x01
    291a:	7a 81       	ldd	r23, Y+2	; 0x02
	}
	else if (mqttstring.cstring)
    291c:	61 15       	cp	r22, r1
    291e:	71 05       	cpc	r23, r1
    2920:	19 f0       	breq	.+6      	; 0x2928 <writeMQTTString+0x64>
		writeCString(pptr, mqttstring.cstring);
    2922:	0e 94 3b 14 	call	0x2876	; 0x2876 <writeCString>
    2926:	04 c0       	rjmp	.+8      	; 0x2930 <writeMQTTString+0x6c>
	else
		writeInt(pptr, 0);
    2928:	60 e0       	ldi	r22, 0x00	; 0
    292a:	70 e0       	ldi	r23, 0x00	; 0
    292c:	0e 94 1c 14 	call	0x2838	; 0x2838 <writeInt>
}
    2930:	26 96       	adiw	r28, 0x06	; 6
    2932:	0f b6       	in	r0, 0x3f	; 63
    2934:	f8 94       	cli
    2936:	de bf       	out	0x3e, r29	; 62
    2938:	0f be       	out	0x3f, r0	; 63
    293a:	cd bf       	out	0x3d, r28	; 61
    293c:	df 91       	pop	r29
    293e:	cf 91       	pop	r28
    2940:	1f 91       	pop	r17
    2942:	0f 91       	pop	r16
    2944:	ff 90       	pop	r15
    2946:	ef 90       	pop	r14
    2948:	08 95       	ret

0000294a <readMQTTLenString>:
 * @param pptr pointer to the output buffer - incremented by the number of bytes used & returned
 * @param enddata pointer to the end of the data: do not read beyond
 * @return 1 if successful, 0 if not
 */
int readMQTTLenString(MQTTString* mqttstring, unsigned char** pptr, unsigned char* enddata)
{
    294a:	ef 92       	push	r14
    294c:	ff 92       	push	r15
    294e:	0f 93       	push	r16
    2950:	1f 93       	push	r17
    2952:	cf 93       	push	r28
    2954:	df 93       	push	r29
    2956:	8c 01       	movw	r16, r24
    2958:	eb 01       	movw	r28, r22
    295a:	7a 01       	movw	r14, r20
	int rc = 0;

	FUNC_ENTRY;
	/* the first two bytes are the length of the string */
	if (enddata - (*pptr) > 1) /* enough length to read the integer? */
    295c:	88 81       	ld	r24, Y
    295e:	99 81       	ldd	r25, Y+1	; 0x01
    2960:	9a 01       	movw	r18, r20
    2962:	28 1b       	sub	r18, r24
    2964:	39 0b       	sbc	r19, r25
    2966:	22 30       	cpi	r18, 0x02	; 2
    2968:	31 05       	cpc	r19, r1
    296a:	cc f0       	brlt	.+50     	; 0x299e <readMQTTLenString+0x54>
	{
		mqttstring->lenstring.len = readInt(pptr); /* increments pptr to point past length */
    296c:	cb 01       	movw	r24, r22
    296e:	0e 94 fa 13 	call	0x27f4	; 0x27f4 <readInt>
    2972:	f8 01       	movw	r30, r16
    2974:	93 83       	std	Z+3, r25	; 0x03
    2976:	82 83       	std	Z+2, r24	; 0x02
		if (&(*pptr)[mqttstring->lenstring.len] <= enddata)
    2978:	28 81       	ld	r18, Y
    297a:	39 81       	ldd	r19, Y+1	; 0x01
    297c:	a9 01       	movw	r20, r18
    297e:	48 0f       	add	r20, r24
    2980:	59 1f       	adc	r21, r25
    2982:	e4 16       	cp	r14, r20
    2984:	f5 06       	cpc	r15, r21
    2986:	70 f0       	brcs	.+28     	; 0x29a4 <readMQTTLenString+0x5a>
		{
			mqttstring->lenstring.data = (char*)*pptr;
    2988:	35 83       	std	Z+5, r19	; 0x05
    298a:	24 83       	std	Z+4, r18	; 0x04
			*pptr += mqttstring->lenstring.len;
    298c:	28 81       	ld	r18, Y
    298e:	39 81       	ldd	r19, Y+1	; 0x01
    2990:	82 0f       	add	r24, r18
    2992:	93 1f       	adc	r25, r19
    2994:	99 83       	std	Y+1, r25	; 0x01
    2996:	88 83       	st	Y, r24
			rc = 1;
    2998:	81 e0       	ldi	r24, 0x01	; 1
    299a:	90 e0       	ldi	r25, 0x00	; 0
    299c:	05 c0       	rjmp	.+10     	; 0x29a8 <readMQTTLenString+0x5e>
 * @param enddata pointer to the end of the data: do not read beyond
 * @return 1 if successful, 0 if not
 */
int readMQTTLenString(MQTTString* mqttstring, unsigned char** pptr, unsigned char* enddata)
{
	int rc = 0;
    299e:	80 e0       	ldi	r24, 0x00	; 0
    29a0:	90 e0       	ldi	r25, 0x00	; 0
    29a2:	02 c0       	rjmp	.+4      	; 0x29a8 <readMQTTLenString+0x5e>
    29a4:	80 e0       	ldi	r24, 0x00	; 0
    29a6:	90 e0       	ldi	r25, 0x00	; 0
			mqttstring->lenstring.data = (char*)*pptr;
			*pptr += mqttstring->lenstring.len;
			rc = 1;
		}
	}
	mqttstring->cstring = NULL;
    29a8:	f8 01       	movw	r30, r16
    29aa:	11 82       	std	Z+1, r1	; 0x01
    29ac:	10 82       	st	Z, r1
	FUNC_EXIT_RC(rc);
	return rc;
}
    29ae:	df 91       	pop	r29
    29b0:	cf 91       	pop	r28
    29b2:	1f 91       	pop	r17
    29b4:	0f 91       	pop	r16
    29b6:	ff 90       	pop	r15
    29b8:	ef 90       	pop	r14
    29ba:	08 95       	ret

000029bc <MQTTstrlen>:
 * Return the length of the MQTTstring - C string if there is one, otherwise the length delimited string
 * @param mqttstring the string to return the length of
 * @return the length of the string
 */
int MQTTstrlen(MQTTString mqttstring)
{
    29bc:	cf 93       	push	r28
    29be:	df 93       	push	r29
    29c0:	00 d0       	rcall	.+0      	; 0x29c2 <MQTTstrlen+0x6>
    29c2:	00 d0       	rcall	.+0      	; 0x29c4 <MQTTstrlen+0x8>
    29c4:	00 d0       	rcall	.+0      	; 0x29c6 <MQTTstrlen+0xa>
    29c6:	cd b7       	in	r28, 0x3d	; 61
    29c8:	de b7       	in	r29, 0x3e	; 62
    29ca:	49 83       	std	Y+1, r20	; 0x01
    29cc:	5a 83       	std	Y+2, r21	; 0x02
    29ce:	6b 83       	std	Y+3, r22	; 0x03
    29d0:	7c 83       	std	Y+4, r23	; 0x04
    29d2:	8d 83       	std	Y+5, r24	; 0x05
    29d4:	9e 83       	std	Y+6, r25	; 0x06
    29d6:	a9 81       	ldd	r26, Y+1	; 0x01
    29d8:	ba 81       	ldd	r27, Y+2	; 0x02
	int rc = 0;

	if (mqttstring.cstring)
    29da:	10 97       	sbiw	r26, 0x00	; 0
    29dc:	49 f0       	breq	.+18     	; 0x29f0 <MQTTstrlen+0x34>
		rc = strlen(mqttstring.cstring);
    29de:	fd 01       	movw	r30, r26
    29e0:	01 90       	ld	r0, Z+
    29e2:	00 20       	and	r0, r0
    29e4:	e9 f7       	brne	.-6      	; 0x29e0 <MQTTstrlen+0x24>
    29e6:	31 97       	sbiw	r30, 0x01	; 1
    29e8:	cf 01       	movw	r24, r30
    29ea:	8a 1b       	sub	r24, r26
    29ec:	9b 0b       	sbc	r25, r27
    29ee:	02 c0       	rjmp	.+4      	; 0x29f4 <MQTTstrlen+0x38>
	else
		rc = mqttstring.lenstring.len;
    29f0:	8b 81       	ldd	r24, Y+3	; 0x03
    29f2:	9c 81       	ldd	r25, Y+4	; 0x04
	return rc;
}
    29f4:	26 96       	adiw	r28, 0x06	; 6
    29f6:	0f b6       	in	r0, 0x3f	; 63
    29f8:	f8 94       	cli
    29fa:	de bf       	out	0x3e, r29	; 62
    29fc:	0f be       	out	0x3f, r0	; 63
    29fe:	cd bf       	out	0x3d, r28	; 61
    2a00:	df 91       	pop	r29
    2a02:	cf 91       	pop	r28
    2a04:	08 95       	ret

00002a06 <MQTTPacket_equals>:
{
	int alen = 0,
		blen = 0;
	char *aptr;
	
	if (a->cstring)
    2a06:	fc 01       	movw	r30, r24
    2a08:	a0 81       	ld	r26, Z
    2a0a:	b1 81       	ldd	r27, Z+1	; 0x01
    2a0c:	10 97       	sbiw	r26, 0x00	; 0
    2a0e:	49 f0       	breq	.+18     	; 0x2a22 <MQTTPacket_equals+0x1c>
	{
		aptr = a->cstring;
		alen = strlen(a->cstring);
    2a10:	fd 01       	movw	r30, r26
    2a12:	01 90       	ld	r0, Z+
    2a14:	00 20       	and	r0, r0
    2a16:	e9 f7       	brne	.-6      	; 0x2a12 <MQTTPacket_equals+0xc>
    2a18:	31 97       	sbiw	r30, 0x01	; 1
    2a1a:	af 01       	movw	r20, r30
    2a1c:	4a 1b       	sub	r20, r26
    2a1e:	5b 0b       	sbc	r21, r27
    2a20:	05 c0       	rjmp	.+10     	; 0x2a2c <MQTTPacket_equals+0x26>
	}
	else
	{
		aptr = a->lenstring.data;
    2a22:	fc 01       	movw	r30, r24
    2a24:	a4 81       	ldd	r26, Z+4	; 0x04
    2a26:	b5 81       	ldd	r27, Z+5	; 0x05
		alen = a->lenstring.len;
    2a28:	42 81       	ldd	r20, Z+2	; 0x02
    2a2a:	53 81       	ldd	r21, Z+3	; 0x03
	}
	blen = strlen(bptr);
    2a2c:	fb 01       	movw	r30, r22
    2a2e:	01 90       	ld	r0, Z+
    2a30:	00 20       	and	r0, r0
    2a32:	e9 f7       	brne	.-6      	; 0x2a2e <MQTTPacket_equals+0x28>
    2a34:	31 97       	sbiw	r30, 0x01	; 1
    2a36:	e6 1b       	sub	r30, r22
    2a38:	f7 0b       	sbc	r31, r23
	
	return (alen == blen) && (strncmp(aptr, bptr, alen) == 0);
    2a3a:	4e 17       	cp	r20, r30
    2a3c:	5f 07       	cpc	r21, r31
    2a3e:	59 f4       	brne	.+22     	; 0x2a56 <MQTTPacket_equals+0x50>
    2a40:	cd 01       	movw	r24, r26
    2a42:	0e 94 57 1d 	call	0x3aae	; 0x3aae <strncmp>
    2a46:	31 e0       	ldi	r19, 0x01	; 1
    2a48:	20 e0       	ldi	r18, 0x00	; 0
    2a4a:	89 2b       	or	r24, r25
    2a4c:	09 f0       	breq	.+2      	; 0x2a50 <MQTTPacket_equals+0x4a>
    2a4e:	30 e0       	ldi	r19, 0x00	; 0
    2a50:	83 2f       	mov	r24, r19
    2a52:	92 2f       	mov	r25, r18
    2a54:	08 95       	ret
    2a56:	80 e0       	ldi	r24, 0x00	; 0
    2a58:	90 e0       	ldi	r25, 0x00	; 0
}
    2a5a:	08 95       	ret

00002a5c <MQTTSerialize_publishLength>:
  * @param topicName the topic name to be used in the publish  
  * @param payloadlen the length of the payload to be sent
  * @return the length of buffer needed to contain the serialized version of the packet
  */
int MQTTSerialize_publishLength(int qos, MQTTString topicName, int payloadlen)
{
    2a5c:	ef 92       	push	r14
    2a5e:	ff 92       	push	r15
    2a60:	0f 93       	push	r16
    2a62:	1f 93       	push	r17
    2a64:	cf 93       	push	r28
    2a66:	df 93       	push	r29
    2a68:	00 d0       	rcall	.+0      	; 0x2a6a <MQTTSerialize_publishLength+0xe>
    2a6a:	00 d0       	rcall	.+0      	; 0x2a6c <MQTTSerialize_publishLength+0x10>
    2a6c:	00 d0       	rcall	.+0      	; 0x2a6e <MQTTSerialize_publishLength+0x12>
    2a6e:	cd b7       	in	r28, 0x3d	; 61
    2a70:	de b7       	in	r29, 0x3e	; 62
    2a72:	7c 01       	movw	r14, r24
    2a74:	f4 2f       	mov	r31, r20
    2a76:	e5 2f       	mov	r30, r21
    2a78:	86 2f       	mov	r24, r22
    2a7a:	97 2f       	mov	r25, r23
	int len = 0;

	len += 2 + MQTTstrlen(topicName) + payloadlen;
    2a7c:	42 2f       	mov	r20, r18
    2a7e:	53 2f       	mov	r21, r19
    2a80:	6f 2f       	mov	r22, r31
    2a82:	7e 2f       	mov	r23, r30
    2a84:	0e 94 de 14 	call	0x29bc	; 0x29bc <MQTTstrlen>
    2a88:	02 96       	adiw	r24, 0x02	; 2
    2a8a:	80 0f       	add	r24, r16
    2a8c:	91 1f       	adc	r25, r17
	if (qos > 0)
    2a8e:	1e 14       	cp	r1, r14
    2a90:	1f 04       	cpc	r1, r15
    2a92:	0c f4       	brge	.+2      	; 0x2a96 <MQTTSerialize_publishLength+0x3a>
		len += 2; /* packetid */
    2a94:	02 96       	adiw	r24, 0x02	; 2
	return len;
}
    2a96:	26 96       	adiw	r28, 0x06	; 6
    2a98:	0f b6       	in	r0, 0x3f	; 63
    2a9a:	f8 94       	cli
    2a9c:	de bf       	out	0x3e, r29	; 62
    2a9e:	0f be       	out	0x3f, r0	; 63
    2aa0:	cd bf       	out	0x3d, r28	; 61
    2aa2:	df 91       	pop	r29
    2aa4:	cf 91       	pop	r28
    2aa6:	1f 91       	pop	r17
    2aa8:	0f 91       	pop	r16
    2aaa:	ff 90       	pop	r15
    2aac:	ef 90       	pop	r14
    2aae:	08 95       	ret

00002ab0 <MQTTSerialize_publish>:
  * @param payloadlen integer - the length of the MQTT payload
  * @return the length of the serialized data.  <= 0 indicates error
  */
int MQTTSerialize_publish(unsigned char* buf, int buflen, unsigned char dup, int qos, unsigned char retained, unsigned short packetid,
		MQTTString topicName, unsigned char* payload, int payloadlen)
{
    2ab0:	2f 92       	push	r2
    2ab2:	3f 92       	push	r3
    2ab4:	4f 92       	push	r4
    2ab6:	5f 92       	push	r5
    2ab8:	6f 92       	push	r6
    2aba:	7f 92       	push	r7
    2abc:	8f 92       	push	r8
    2abe:	9f 92       	push	r9
    2ac0:	af 92       	push	r10
    2ac2:	bf 92       	push	r11
    2ac4:	cf 92       	push	r12
    2ac6:	df 92       	push	r13
    2ac8:	ef 92       	push	r14
    2aca:	ff 92       	push	r15
    2acc:	0f 93       	push	r16
    2ace:	1f 93       	push	r17
    2ad0:	cf 93       	push	r28
    2ad2:	df 93       	push	r29
    2ad4:	cd b7       	in	r28, 0x3d	; 61
    2ad6:	de b7       	in	r29, 0x3e	; 62
    2ad8:	2a 97       	sbiw	r28, 0x0a	; 10
    2ada:	0f b6       	in	r0, 0x3f	; 63
    2adc:	f8 94       	cli
    2ade:	de bf       	out	0x3e, r29	; 62
    2ae0:	0f be       	out	0x3f, r0	; 63
    2ae2:	cd bf       	out	0x3d, r28	; 61
    2ae4:	2c 01       	movw	r4, r24
    2ae6:	1b 01       	movw	r2, r22
    2ae8:	49 87       	std	Y+9, r20	; 0x09
    2aea:	39 01       	movw	r6, r18
    2aec:	0a 87       	std	Y+10, r16	; 0x0a
    2aee:	28 2d       	mov	r18, r8
    2af0:	8b 82       	std	Y+3, r8	; 0x03
    2af2:	39 2d       	mov	r19, r9
    2af4:	9c 82       	std	Y+4, r9	; 0x04
    2af6:	4a 2d       	mov	r20, r10
    2af8:	ad 82       	std	Y+5, r10	; 0x05
    2afa:	5b 2d       	mov	r21, r11
    2afc:	be 82       	std	Y+6, r11	; 0x06
    2afe:	6c 2d       	mov	r22, r12
    2b00:	cf 82       	std	Y+7, r12	; 0x07
    2b02:	7d 2d       	mov	r23, r13
    2b04:	d8 86       	std	Y+8, r13	; 0x08
    2b06:	c9 a0       	ldd	r12, Y+33	; 0x21
    2b08:	da a0       	ldd	r13, Y+34	; 0x22
	unsigned char *ptr = buf;
    2b0a:	9a 83       	std	Y+2, r25	; 0x02
    2b0c:	89 83       	std	Y+1, r24	; 0x01
	MQTTHeader header = {0};
	int rem_len = 0;
	int rc = 0;

	FUNC_ENTRY;
	if (MQTTPacket_len(rem_len = MQTTSerialize_publishLength(qos, topicName, payloadlen)) > buflen)
    2b0e:	86 01       	movw	r16, r12
    2b10:	c3 01       	movw	r24, r6
    2b12:	0e 94 2e 15 	call	0x2a5c	; 0x2a5c <MQTTSerialize_publishLength>
    2b16:	8c 01       	movw	r16, r24
    2b18:	0e 94 e2 13 	call	0x27c4	; 0x27c4 <MQTTPacket_len>
    2b1c:	28 16       	cp	r2, r24
    2b1e:	39 06       	cpc	r3, r25
    2b20:	dc f1       	brlt	.+118    	; 0x2b98 <MQTTSerialize_publish+0xe8>
	{
		rc = MQTTPACKET_BUFFER_TOO_SHORT;
		goto exit;
	}

	header.bits.type = PUBLISH;
    2b22:	60 e3       	ldi	r22, 0x30	; 48
	header.bits.dup = dup;
    2b24:	89 85       	ldd	r24, Y+9	; 0x09
    2b26:	80 fb       	bst	r24, 0
    2b28:	63 f9       	bld	r22, 3
	header.bits.qos = qos;
    2b2a:	86 2d       	mov	r24, r6
    2b2c:	83 70       	andi	r24, 0x03	; 3
    2b2e:	88 0f       	add	r24, r24
    2b30:	69 7f       	andi	r22, 0xF9	; 249
    2b32:	68 2b       	or	r22, r24
	header.bits.retain = retained;
    2b34:	8a 85       	ldd	r24, Y+10	; 0x0a
    2b36:	80 fb       	bst	r24, 0
    2b38:	60 f9       	bld	r22, 0
	writeChar(&ptr, header.byte); /* write header */
    2b3a:	ce 01       	movw	r24, r28
    2b3c:	01 96       	adiw	r24, 0x01	; 1
    2b3e:	0e 94 12 14 	call	0x2824	; 0x2824 <writeChar>

	ptr += MQTTPacket_encode(ptr, rem_len); /* write remaining length */;
    2b42:	b8 01       	movw	r22, r16
    2b44:	89 81       	ldd	r24, Y+1	; 0x01
    2b46:	9a 81       	ldd	r25, Y+2	; 0x02
    2b48:	0e 94 74 13 	call	0x26e8	; 0x26e8 <MQTTPacket_encode>
    2b4c:	29 81       	ldd	r18, Y+1	; 0x01
    2b4e:	3a 81       	ldd	r19, Y+2	; 0x02
    2b50:	82 0f       	add	r24, r18
    2b52:	93 1f       	adc	r25, r19
    2b54:	9a 83       	std	Y+2, r25	; 0x02
    2b56:	89 83       	std	Y+1, r24	; 0x01

	writeMQTTString(&ptr, topicName);
    2b58:	2b 81       	ldd	r18, Y+3	; 0x03
    2b5a:	3c 81       	ldd	r19, Y+4	; 0x04
    2b5c:	4d 81       	ldd	r20, Y+5	; 0x05
    2b5e:	5e 81       	ldd	r21, Y+6	; 0x06
    2b60:	6f 81       	ldd	r22, Y+7	; 0x07
    2b62:	78 85       	ldd	r23, Y+8	; 0x08
    2b64:	ce 01       	movw	r24, r28
    2b66:	01 96       	adiw	r24, 0x01	; 1
    2b68:	0e 94 62 14 	call	0x28c4	; 0x28c4 <writeMQTTString>

	if (qos > 0)
    2b6c:	16 14       	cp	r1, r6
    2b6e:	17 04       	cpc	r1, r7
    2b70:	2c f4       	brge	.+10     	; 0x2b7c <MQTTSerialize_publish+0xcc>
		writeInt(&ptr, packetid);
    2b72:	b7 01       	movw	r22, r14
    2b74:	ce 01       	movw	r24, r28
    2b76:	01 96       	adiw	r24, 0x01	; 1
    2b78:	0e 94 1c 14 	call	0x2838	; 0x2838 <writeInt>

	memcpy(ptr, payload, payloadlen);
    2b7c:	a6 01       	movw	r20, r12
    2b7e:	6f 8d       	ldd	r22, Y+31	; 0x1f
    2b80:	78 a1       	ldd	r23, Y+32	; 0x20
    2b82:	89 81       	ldd	r24, Y+1	; 0x01
    2b84:	9a 81       	ldd	r25, Y+2	; 0x02
    2b86:	0e 94 4e 1d 	call	0x3a9c	; 0x3a9c <memcpy>
	ptr += payloadlen;

	rc = ptr - buf;
    2b8a:	89 81       	ldd	r24, Y+1	; 0x01
    2b8c:	9a 81       	ldd	r25, Y+2	; 0x02
    2b8e:	8c 0d       	add	r24, r12
    2b90:	9d 1d       	adc	r25, r13
    2b92:	84 19       	sub	r24, r4
    2b94:	95 09       	sbc	r25, r5
    2b96:	02 c0       	rjmp	.+4      	; 0x2b9c <MQTTSerialize_publish+0xec>
	int rc = 0;

	FUNC_ENTRY;
	if (MQTTPacket_len(rem_len = MQTTSerialize_publishLength(qos, topicName, payloadlen)) > buflen)
	{
		rc = MQTTPACKET_BUFFER_TOO_SHORT;
    2b98:	8e ef       	ldi	r24, 0xFE	; 254
    2b9a:	9f ef       	ldi	r25, 0xFF	; 255
	rc = ptr - buf;

exit:
	FUNC_EXIT_RC(rc);
	return rc;
}
    2b9c:	2a 96       	adiw	r28, 0x0a	; 10
    2b9e:	0f b6       	in	r0, 0x3f	; 63
    2ba0:	f8 94       	cli
    2ba2:	de bf       	out	0x3e, r29	; 62
    2ba4:	0f be       	out	0x3f, r0	; 63
    2ba6:	cd bf       	out	0x3d, r28	; 61
    2ba8:	df 91       	pop	r29
    2baa:	cf 91       	pop	r28
    2bac:	1f 91       	pop	r17
    2bae:	0f 91       	pop	r16
    2bb0:	ff 90       	pop	r15
    2bb2:	ef 90       	pop	r14
    2bb4:	df 90       	pop	r13
    2bb6:	cf 90       	pop	r12
    2bb8:	bf 90       	pop	r11
    2bba:	af 90       	pop	r10
    2bbc:	9f 90       	pop	r9
    2bbe:	8f 90       	pop	r8
    2bc0:	7f 90       	pop	r7
    2bc2:	6f 90       	pop	r6
    2bc4:	5f 90       	pop	r5
    2bc6:	4f 90       	pop	r4
    2bc8:	3f 90       	pop	r3
    2bca:	2f 90       	pop	r2
    2bcc:	08 95       	ret

00002bce <MQTTSerialize_ack>:
  * @param dup the MQTT dup flag
  * @param packetid the MQTT packet identifier
  * @return serialized length, or error if 0
  */
int MQTTSerialize_ack(unsigned char* buf, int buflen, unsigned char packettype, unsigned char dup, unsigned short packetid)
{
    2bce:	ef 92       	push	r14
    2bd0:	ff 92       	push	r15
    2bd2:	0f 93       	push	r16
    2bd4:	1f 93       	push	r17
    2bd6:	cf 93       	push	r28
    2bd8:	df 93       	push	r29
    2bda:	00 d0       	rcall	.+0      	; 0x2bdc <MQTTSerialize_ack+0xe>
    2bdc:	cd b7       	in	r28, 0x3d	; 61
    2bde:	de b7       	in	r29, 0x3e	; 62
    2be0:	7c 01       	movw	r14, r24
	MQTTHeader header = {0};
	int rc = 0;
	unsigned char *ptr = buf;
    2be2:	9a 83       	std	Y+2, r25	; 0x02
    2be4:	89 83       	std	Y+1, r24	; 0x01

	FUNC_ENTRY;
	if (buflen < 4)
    2be6:	64 30       	cpi	r22, 0x04	; 4
    2be8:	71 05       	cpc	r23, r1
    2bea:	3c f1       	brlt	.+78     	; 0x2c3a <MQTTSerialize_ack+0x6c>
	{
		rc = MQTTPACKET_BUFFER_TOO_SHORT;
		goto exit;
	}
	header.bits.type = packettype;
    2bec:	64 2f       	mov	r22, r20
    2bee:	62 95       	swap	r22
    2bf0:	60 7f       	andi	r22, 0xF0	; 240
	header.bits.dup = dup;
    2bf2:	20 fb       	bst	r18, 0
    2bf4:	63 f9       	bld	r22, 3
	header.bits.qos = (packettype == PUBREL) ? 1 : 0;
    2bf6:	91 e0       	ldi	r25, 0x01	; 1
    2bf8:	46 30       	cpi	r20, 0x06	; 6
    2bfa:	09 f0       	breq	.+2      	; 0x2bfe <MQTTSerialize_ack+0x30>
    2bfc:	90 e0       	ldi	r25, 0x00	; 0
    2bfe:	93 70       	andi	r25, 0x03	; 3
    2c00:	99 0f       	add	r25, r25
    2c02:	69 7f       	andi	r22, 0xF9	; 249
    2c04:	69 2b       	or	r22, r25
	writeChar(&ptr, header.byte); /* write header */
    2c06:	ce 01       	movw	r24, r28
    2c08:	01 96       	adiw	r24, 0x01	; 1
    2c0a:	0e 94 12 14 	call	0x2824	; 0x2824 <writeChar>

	ptr += MQTTPacket_encode(ptr, 2); /* write remaining length */
    2c0e:	62 e0       	ldi	r22, 0x02	; 2
    2c10:	70 e0       	ldi	r23, 0x00	; 0
    2c12:	89 81       	ldd	r24, Y+1	; 0x01
    2c14:	9a 81       	ldd	r25, Y+2	; 0x02
    2c16:	0e 94 74 13 	call	0x26e8	; 0x26e8 <MQTTPacket_encode>
    2c1a:	29 81       	ldd	r18, Y+1	; 0x01
    2c1c:	3a 81       	ldd	r19, Y+2	; 0x02
    2c1e:	82 0f       	add	r24, r18
    2c20:	93 1f       	adc	r25, r19
    2c22:	9a 83       	std	Y+2, r25	; 0x02
    2c24:	89 83       	std	Y+1, r24	; 0x01
	writeInt(&ptr, packetid);
    2c26:	b8 01       	movw	r22, r16
    2c28:	ce 01       	movw	r24, r28
    2c2a:	01 96       	adiw	r24, 0x01	; 1
    2c2c:	0e 94 1c 14 	call	0x2838	; 0x2838 <writeInt>
	rc = ptr - buf;
    2c30:	89 81       	ldd	r24, Y+1	; 0x01
    2c32:	9a 81       	ldd	r25, Y+2	; 0x02
    2c34:	8e 19       	sub	r24, r14
    2c36:	9f 09       	sbc	r25, r15
    2c38:	02 c0       	rjmp	.+4      	; 0x2c3e <MQTTSerialize_ack+0x70>
	unsigned char *ptr = buf;

	FUNC_ENTRY;
	if (buflen < 4)
	{
		rc = MQTTPACKET_BUFFER_TOO_SHORT;
    2c3a:	8e ef       	ldi	r24, 0xFE	; 254
    2c3c:	9f ef       	ldi	r25, 0xFF	; 255
	writeInt(&ptr, packetid);
	rc = ptr - buf;
exit:
	FUNC_EXIT_RC(rc);
	return rc;
}
    2c3e:	0f 90       	pop	r0
    2c40:	0f 90       	pop	r0
    2c42:	df 91       	pop	r29
    2c44:	cf 91       	pop	r28
    2c46:	1f 91       	pop	r17
    2c48:	0f 91       	pop	r16
    2c4a:	ff 90       	pop	r15
    2c4c:	ef 90       	pop	r14
    2c4e:	08 95       	ret

00002c50 <MQTTSerialize_subscribeLength>:
  * @param count the number of topic filter strings in topicFilters
  * @param topicFilters the array of topic filter strings to be used in the publish
  * @return the length of buffer needed to contain the serialized version of the packet
  */
int MQTTSerialize_subscribeLength(int count, MQTTString topicFilters[])
{
    2c50:	ef 92       	push	r14
    2c52:	ff 92       	push	r15
    2c54:	0f 93       	push	r16
    2c56:	1f 93       	push	r17
    2c58:	cf 93       	push	r28
    2c5a:	df 93       	push	r29
	int i;
	int len = 2; /* packetid */

	for (i = 0; i < count; ++i)
    2c5c:	18 16       	cp	r1, r24
    2c5e:	19 06       	cpc	r1, r25
    2c60:	ec f4       	brge	.+58     	; 0x2c9c <MQTTSerialize_subscribeLength+0x4c>
    2c62:	7b 01       	movw	r14, r22
    2c64:	eb 01       	movw	r28, r22
    2c66:	9c 01       	movw	r18, r24
    2c68:	22 0f       	add	r18, r18
    2c6a:	33 1f       	adc	r19, r19
    2c6c:	82 0f       	add	r24, r18
    2c6e:	93 1f       	adc	r25, r19
    2c70:	88 0f       	add	r24, r24
    2c72:	99 1f       	adc	r25, r25
    2c74:	e8 0e       	add	r14, r24
    2c76:	f9 1e       	adc	r15, r25
    2c78:	02 e0       	ldi	r16, 0x02	; 2
    2c7a:	10 e0       	ldi	r17, 0x00	; 0
		len += 2 + MQTTstrlen(topicFilters[i]) + 1; /* length + topic + req_qos */
    2c7c:	48 81       	ld	r20, Y
    2c7e:	59 81       	ldd	r21, Y+1	; 0x01
    2c80:	6a 81       	ldd	r22, Y+2	; 0x02
    2c82:	7b 81       	ldd	r23, Y+3	; 0x03
    2c84:	8c 81       	ldd	r24, Y+4	; 0x04
    2c86:	9d 81       	ldd	r25, Y+5	; 0x05
    2c88:	0e 94 de 14 	call	0x29bc	; 0x29bc <MQTTstrlen>
    2c8c:	03 96       	adiw	r24, 0x03	; 3
    2c8e:	08 0f       	add	r16, r24
    2c90:	19 1f       	adc	r17, r25
    2c92:	26 96       	adiw	r28, 0x06	; 6
int MQTTSerialize_subscribeLength(int count, MQTTString topicFilters[])
{
	int i;
	int len = 2; /* packetid */

	for (i = 0; i < count; ++i)
    2c94:	ce 15       	cp	r28, r14
    2c96:	df 05       	cpc	r29, r15
    2c98:	89 f7       	brne	.-30     	; 0x2c7c <MQTTSerialize_subscribeLength+0x2c>
    2c9a:	02 c0       	rjmp	.+4      	; 0x2ca0 <MQTTSerialize_subscribeLength+0x50>
  * @return the length of buffer needed to contain the serialized version of the packet
  */
int MQTTSerialize_subscribeLength(int count, MQTTString topicFilters[])
{
	int i;
	int len = 2; /* packetid */
    2c9c:	02 e0       	ldi	r16, 0x02	; 2
    2c9e:	10 e0       	ldi	r17, 0x00	; 0

	for (i = 0; i < count; ++i)
		len += 2 + MQTTstrlen(topicFilters[i]) + 1; /* length + topic + req_qos */
	return len;
}
    2ca0:	c8 01       	movw	r24, r16
    2ca2:	df 91       	pop	r29
    2ca4:	cf 91       	pop	r28
    2ca6:	1f 91       	pop	r17
    2ca8:	0f 91       	pop	r16
    2caa:	ff 90       	pop	r15
    2cac:	ef 90       	pop	r14
    2cae:	08 95       	ret

00002cb0 <MQTTSerialize_subscribe>:
  * @param requestedQoSs - array of requested QoS
  * @return the length of the serialized data.  <= 0 indicates error
  */
int MQTTSerialize_subscribe(unsigned char* buf, int buflen, unsigned char dup, unsigned short packetid, int count,
		MQTTString topicFilters[], int requestedQoSs[])
{
    2cb0:	3f 92       	push	r3
    2cb2:	4f 92       	push	r4
    2cb4:	5f 92       	push	r5
    2cb6:	6f 92       	push	r6
    2cb8:	7f 92       	push	r7
    2cba:	8f 92       	push	r8
    2cbc:	9f 92       	push	r9
    2cbe:	af 92       	push	r10
    2cc0:	bf 92       	push	r11
    2cc2:	cf 92       	push	r12
    2cc4:	df 92       	push	r13
    2cc6:	ef 92       	push	r14
    2cc8:	ff 92       	push	r15
    2cca:	0f 93       	push	r16
    2ccc:	1f 93       	push	r17
    2cce:	cf 93       	push	r28
    2cd0:	df 93       	push	r29
    2cd2:	00 d0       	rcall	.+0      	; 0x2cd4 <MQTTSerialize_subscribe+0x24>
    2cd4:	cd b7       	in	r28, 0x3d	; 61
    2cd6:	de b7       	in	r29, 0x3e	; 62
    2cd8:	5c 01       	movw	r10, r24
    2cda:	4b 01       	movw	r8, r22
    2cdc:	34 2e       	mov	r3, r20
    2cde:	29 01       	movw	r4, r18
	unsigned char *ptr = buf;
    2ce0:	9a 83       	std	Y+2, r25	; 0x02
    2ce2:	89 83       	std	Y+1, r24	; 0x01
	int rem_len = 0;
	int rc = 0;
	int i = 0;

	FUNC_ENTRY;
	if (MQTTPacket_len(rem_len = MQTTSerialize_subscribeLength(count, topicFilters)) > buflen)
    2ce4:	6e 2d       	mov	r22, r14
    2ce6:	7f 2d       	mov	r23, r15
    2ce8:	c8 01       	movw	r24, r16
    2cea:	0e 94 28 16 	call	0x2c50	; 0x2c50 <MQTTSerialize_subscribeLength>
    2cee:	3c 01       	movw	r6, r24
    2cf0:	0e 94 e2 13 	call	0x27c4	; 0x27c4 <MQTTPacket_len>
    2cf4:	88 16       	cp	r8, r24
    2cf6:	99 06       	cpc	r9, r25
    2cf8:	0c f4       	brge	.+2      	; 0x2cfc <MQTTSerialize_subscribe+0x4c>
    2cfa:	42 c0       	rjmp	.+132    	; 0x2d80 <MQTTSerialize_subscribe+0xd0>
		rc = MQTTPACKET_BUFFER_TOO_SHORT;
		goto exit;
	}

	header.byte = 0;
	header.bits.type = SUBSCRIBE;
    2cfc:	60 e8       	ldi	r22, 0x80	; 128
	header.bits.dup = dup;
    2cfe:	30 fa       	bst	r3, 0
    2d00:	63 f9       	bld	r22, 3
	header.bits.qos = 1;
    2d02:	69 7f       	andi	r22, 0xF9	; 249
    2d04:	62 60       	ori	r22, 0x02	; 2
	writeChar(&ptr, header.byte); /* write header */
    2d06:	ce 01       	movw	r24, r28
    2d08:	01 96       	adiw	r24, 0x01	; 1
    2d0a:	0e 94 12 14 	call	0x2824	; 0x2824 <writeChar>

	ptr += MQTTPacket_encode(ptr, rem_len); /* write remaining length */;
    2d0e:	b3 01       	movw	r22, r6
    2d10:	89 81       	ldd	r24, Y+1	; 0x01
    2d12:	9a 81       	ldd	r25, Y+2	; 0x02
    2d14:	0e 94 74 13 	call	0x26e8	; 0x26e8 <MQTTPacket_encode>
    2d18:	29 81       	ldd	r18, Y+1	; 0x01
    2d1a:	3a 81       	ldd	r19, Y+2	; 0x02
    2d1c:	82 0f       	add	r24, r18
    2d1e:	93 1f       	adc	r25, r19
    2d20:	9a 83       	std	Y+2, r25	; 0x02
    2d22:	89 83       	std	Y+1, r24	; 0x01

	writeInt(&ptr, packetid);
    2d24:	b2 01       	movw	r22, r4
    2d26:	ce 01       	movw	r24, r28
    2d28:	01 96       	adiw	r24, 0x01	; 1
    2d2a:	0e 94 1c 14 	call	0x2838	; 0x2838 <writeInt>

	for (i = 0; i < count; ++i)
    2d2e:	10 16       	cp	r1, r16
    2d30:	11 06       	cpc	r1, r17
    2d32:	0c f5       	brge	.+66     	; 0x2d76 <MQTTSerialize_subscribe+0xc6>
    2d34:	8e 2c       	mov	r8, r14
    2d36:	9f 2c       	mov	r9, r15
    2d38:	76 01       	movw	r14, r12
    2d3a:	00 0f       	add	r16, r16
    2d3c:	11 1f       	adc	r17, r17
    2d3e:	c0 0e       	add	r12, r16
    2d40:	d1 1e       	adc	r13, r17
	{
		writeMQTTString(&ptr, topicFilters[i]);
    2d42:	f4 01       	movw	r30, r8
    2d44:	20 81       	ld	r18, Z
    2d46:	31 81       	ldd	r19, Z+1	; 0x01
    2d48:	42 81       	ldd	r20, Z+2	; 0x02
    2d4a:	53 81       	ldd	r21, Z+3	; 0x03
    2d4c:	64 81       	ldd	r22, Z+4	; 0x04
    2d4e:	75 81       	ldd	r23, Z+5	; 0x05
    2d50:	ce 01       	movw	r24, r28
    2d52:	01 96       	adiw	r24, 0x01	; 1
    2d54:	0e 94 62 14 	call	0x28c4	; 0x28c4 <writeMQTTString>
		writeChar(&ptr, requestedQoSs[i]);
    2d58:	f7 01       	movw	r30, r14
    2d5a:	60 81       	ld	r22, Z
    2d5c:	f2 e0       	ldi	r31, 0x02	; 2
    2d5e:	ef 0e       	add	r14, r31
    2d60:	f1 1c       	adc	r15, r1
    2d62:	ce 01       	movw	r24, r28
    2d64:	01 96       	adiw	r24, 0x01	; 1
    2d66:	0e 94 12 14 	call	0x2824	; 0x2824 <writeChar>
    2d6a:	86 e0       	ldi	r24, 0x06	; 6
    2d6c:	88 0e       	add	r8, r24
    2d6e:	91 1c       	adc	r9, r1

	ptr += MQTTPacket_encode(ptr, rem_len); /* write remaining length */;

	writeInt(&ptr, packetid);

	for (i = 0; i < count; ++i)
    2d70:	ec 14       	cp	r14, r12
    2d72:	fd 04       	cpc	r15, r13
    2d74:	31 f7       	brne	.-52     	; 0x2d42 <MQTTSerialize_subscribe+0x92>
	{
		writeMQTTString(&ptr, topicFilters[i]);
		writeChar(&ptr, requestedQoSs[i]);
	}

	rc = ptr - buf;
    2d76:	89 81       	ldd	r24, Y+1	; 0x01
    2d78:	9a 81       	ldd	r25, Y+2	; 0x02
    2d7a:	8a 19       	sub	r24, r10
    2d7c:	9b 09       	sbc	r25, r11
    2d7e:	02 c0       	rjmp	.+4      	; 0x2d84 <MQTTSerialize_subscribe+0xd4>
	int i = 0;

	FUNC_ENTRY;
	if (MQTTPacket_len(rem_len = MQTTSerialize_subscribeLength(count, topicFilters)) > buflen)
	{
		rc = MQTTPACKET_BUFFER_TOO_SHORT;
    2d80:	8e ef       	ldi	r24, 0xFE	; 254
    2d82:	9f ef       	ldi	r25, 0xFF	; 255

	rc = ptr - buf;
exit:
	FUNC_EXIT_RC(rc);
	return rc;
}
    2d84:	0f 90       	pop	r0
    2d86:	0f 90       	pop	r0
    2d88:	df 91       	pop	r29
    2d8a:	cf 91       	pop	r28
    2d8c:	1f 91       	pop	r17
    2d8e:	0f 91       	pop	r16
    2d90:	ff 90       	pop	r15
    2d92:	ef 90       	pop	r14
    2d94:	df 90       	pop	r13
    2d96:	cf 90       	pop	r12
    2d98:	bf 90       	pop	r11
    2d9a:	af 90       	pop	r10
    2d9c:	9f 90       	pop	r9
    2d9e:	8f 90       	pop	r8
    2da0:	7f 90       	pop	r7
    2da2:	6f 90       	pop	r6
    2da4:	5f 90       	pop	r5
    2da6:	4f 90       	pop	r4
    2da8:	3f 90       	pop	r3
    2daa:	08 95       	ret

00002dac <MQTTDeserialize_suback>:
  * @param buf the raw buffer data, of the correct length determined by the remaining length field
  * @param buflen the length in bytes of the data in the supplied buffer
  * @return error code.  1 is success, 0 is failure
  */
int MQTTDeserialize_suback(unsigned short* packetid, int maxcount, int* count, int grantedQoSs[], unsigned char* buf, int buflen)
{
    2dac:	8f 92       	push	r8
    2dae:	9f 92       	push	r9
    2db0:	af 92       	push	r10
    2db2:	bf 92       	push	r11
    2db4:	cf 92       	push	r12
    2db6:	df 92       	push	r13
    2db8:	ef 92       	push	r14
    2dba:	ff 92       	push	r15
    2dbc:	0f 93       	push	r16
    2dbe:	1f 93       	push	r17
    2dc0:	cf 93       	push	r28
    2dc2:	df 93       	push	r29
    2dc4:	00 d0       	rcall	.+0      	; 0x2dc6 <MQTTDeserialize_suback+0x1a>
    2dc6:	00 d0       	rcall	.+0      	; 0x2dc8 <MQTTDeserialize_suback+0x1c>
    2dc8:	cd b7       	in	r28, 0x3d	; 61
    2dca:	de b7       	in	r29, 0x3e	; 62
    2dcc:	4c 01       	movw	r8, r24
    2dce:	6b 01       	movw	r12, r22
    2dd0:	7a 01       	movw	r14, r20
    2dd2:	59 01       	movw	r10, r18
	MQTTHeader header = {0};
	unsigned char* curdata = buf;
    2dd4:	1a 83       	std	Y+2, r17	; 0x02
    2dd6:	09 83       	std	Y+1, r16	; 0x01
	unsigned char* enddata = NULL;
	int rc = 0;
	int mylen;

	FUNC_ENTRY;
	header.byte = readChar(&curdata);
    2dd8:	ce 01       	movw	r24, r28
    2dda:	01 96       	adiw	r24, 0x01	; 1
    2ddc:	0e 94 0a 14 	call	0x2814	; 0x2814 <readChar>
	if (header.bits.type != SUBACK)
    2de0:	80 7f       	andi	r24, 0xF0	; 240
    2de2:	80 39       	cpi	r24, 0x90	; 144
    2de4:	09 f0       	breq	.+2      	; 0x2de8 <MQTTDeserialize_suback+0x3c>
    2de6:	4a c0       	rjmp	.+148    	; 0x2e7c <MQTTDeserialize_suback+0xd0>
		goto exit;

	curdata += (rc = MQTTPacket_decodeBuf(curdata, &mylen)); /* read remaining length */
    2de8:	be 01       	movw	r22, r28
    2dea:	6d 5f       	subi	r22, 0xFD	; 253
    2dec:	7f 4f       	sbci	r23, 0xFF	; 255
    2dee:	89 81       	ldd	r24, Y+1	; 0x01
    2df0:	9a 81       	ldd	r25, Y+2	; 0x02
    2df2:	0e 94 f1 13 	call	0x27e2	; 0x27e2 <MQTTPacket_decodeBuf>
    2df6:	09 81       	ldd	r16, Y+1	; 0x01
    2df8:	1a 81       	ldd	r17, Y+2	; 0x02
    2dfa:	08 0f       	add	r16, r24
    2dfc:	19 1f       	adc	r17, r25
    2dfe:	1a 83       	std	Y+2, r17	; 0x02
    2e00:	09 83       	std	Y+1, r16	; 0x01
	enddata = curdata + mylen;
    2e02:	2b 81       	ldd	r18, Y+3	; 0x03
    2e04:	3c 81       	ldd	r19, Y+4	; 0x04
	if (enddata - curdata < 2)
    2e06:	22 30       	cpi	r18, 0x02	; 2
    2e08:	31 05       	cpc	r19, r1
    2e0a:	0c f4       	brge	.+2      	; 0x2e0e <MQTTDeserialize_suback+0x62>
    2e0c:	42 c0       	rjmp	.+132    	; 0x2e92 <MQTTDeserialize_suback+0xe6>
	header.byte = readChar(&curdata);
	if (header.bits.type != SUBACK)
		goto exit;

	curdata += (rc = MQTTPacket_decodeBuf(curdata, &mylen)); /* read remaining length */
	enddata = curdata + mylen;
    2e0e:	02 0f       	add	r16, r18
    2e10:	13 1f       	adc	r17, r19
	if (enddata - curdata < 2)
		goto exit;

	*packetid = readInt(&curdata);
    2e12:	ce 01       	movw	r24, r28
    2e14:	01 96       	adiw	r24, 0x01	; 1
    2e16:	0e 94 fa 13 	call	0x27f4	; 0x27f4 <readInt>
    2e1a:	f4 01       	movw	r30, r8
    2e1c:	91 83       	std	Z+1, r25	; 0x01
    2e1e:	80 83       	st	Z, r24

	*count = 0;
    2e20:	f7 01       	movw	r30, r14
    2e22:	11 82       	std	Z+1, r1	; 0x01
    2e24:	10 82       	st	Z, r1
	while (curdata < enddata)
    2e26:	89 81       	ldd	r24, Y+1	; 0x01
    2e28:	9a 81       	ldd	r25, Y+2	; 0x02
    2e2a:	80 17       	cp	r24, r16
    2e2c:	91 07       	cpc	r25, r17
    2e2e:	48 f5       	brcc	.+82     	; 0x2e82 <MQTTDeserialize_suback+0xd6>
	{
		if (*count > maxcount)
    2e30:	dd 20       	and	r13, r13
    2e32:	54 f1       	brlt	.+84     	; 0x2e88 <MQTTDeserialize_suback+0xdc>
    2e34:	80 e0       	ldi	r24, 0x00	; 0
    2e36:	90 e0       	ldi	r25, 0x00	; 0
    2e38:	06 c0       	rjmp	.+12     	; 0x2e46 <MQTTDeserialize_suback+0x9a>
    2e3a:	f7 01       	movw	r30, r14
    2e3c:	80 81       	ld	r24, Z
    2e3e:	91 81       	ldd	r25, Z+1	; 0x01
    2e40:	c8 16       	cp	r12, r24
    2e42:	d9 06       	cpc	r13, r25
    2e44:	24 f1       	brlt	.+72     	; 0x2e8e <MQTTDeserialize_suback+0xe2>
		{
			rc = -1;
			goto exit;
		}
		grantedQoSs[(*count)++] = readChar(&curdata);
    2e46:	9c 01       	movw	r18, r24
    2e48:	2f 5f       	subi	r18, 0xFF	; 255
    2e4a:	3f 4f       	sbci	r19, 0xFF	; 255
    2e4c:	f7 01       	movw	r30, r14
    2e4e:	31 83       	std	Z+1, r19	; 0x01
    2e50:	20 83       	st	Z, r18
    2e52:	88 0f       	add	r24, r24
    2e54:	99 1f       	adc	r25, r25
    2e56:	45 01       	movw	r8, r10
    2e58:	88 0e       	add	r8, r24
    2e5a:	99 1e       	adc	r9, r25
    2e5c:	ce 01       	movw	r24, r28
    2e5e:	01 96       	adiw	r24, 0x01	; 1
    2e60:	0e 94 0a 14 	call	0x2814	; 0x2814 <readChar>
    2e64:	90 e0       	ldi	r25, 0x00	; 0
    2e66:	f4 01       	movw	r30, r8
    2e68:	91 83       	std	Z+1, r25	; 0x01
    2e6a:	80 83       	st	Z, r24
		goto exit;

	*packetid = readInt(&curdata);

	*count = 0;
	while (curdata < enddata)
    2e6c:	89 81       	ldd	r24, Y+1	; 0x01
    2e6e:	9a 81       	ldd	r25, Y+2	; 0x02
    2e70:	80 17       	cp	r24, r16
    2e72:	91 07       	cpc	r25, r17
    2e74:	10 f3       	brcs	.-60     	; 0x2e3a <MQTTDeserialize_suback+0x8e>
			goto exit;
		}
		grantedQoSs[(*count)++] = readChar(&curdata);
	}

	rc = 1;
    2e76:	81 e0       	ldi	r24, 0x01	; 1
    2e78:	90 e0       	ldi	r25, 0x00	; 0
    2e7a:	0b c0       	rjmp	.+22     	; 0x2e92 <MQTTDeserialize_suback+0xe6>
int MQTTDeserialize_suback(unsigned short* packetid, int maxcount, int* count, int grantedQoSs[], unsigned char* buf, int buflen)
{
	MQTTHeader header = {0};
	unsigned char* curdata = buf;
	unsigned char* enddata = NULL;
	int rc = 0;
    2e7c:	80 e0       	ldi	r24, 0x00	; 0
    2e7e:	90 e0       	ldi	r25, 0x00	; 0
    2e80:	08 c0       	rjmp	.+16     	; 0x2e92 <MQTTDeserialize_suback+0xe6>
			goto exit;
		}
		grantedQoSs[(*count)++] = readChar(&curdata);
	}

	rc = 1;
    2e82:	81 e0       	ldi	r24, 0x01	; 1
    2e84:	90 e0       	ldi	r25, 0x00	; 0
    2e86:	05 c0       	rjmp	.+10     	; 0x2e92 <MQTTDeserialize_suback+0xe6>
	*count = 0;
	while (curdata < enddata)
	{
		if (*count > maxcount)
		{
			rc = -1;
    2e88:	8f ef       	ldi	r24, 0xFF	; 255
    2e8a:	9f ef       	ldi	r25, 0xFF	; 255
    2e8c:	02 c0       	rjmp	.+4      	; 0x2e92 <MQTTDeserialize_suback+0xe6>
    2e8e:	8f ef       	ldi	r24, 0xFF	; 255
    2e90:	9f ef       	ldi	r25, 0xFF	; 255

	rc = 1;
exit:
	FUNC_EXIT_RC(rc);
	return rc;
}
    2e92:	0f 90       	pop	r0
    2e94:	0f 90       	pop	r0
    2e96:	0f 90       	pop	r0
    2e98:	0f 90       	pop	r0
    2e9a:	df 91       	pop	r29
    2e9c:	cf 91       	pop	r28
    2e9e:	1f 91       	pop	r17
    2ea0:	0f 91       	pop	r16
    2ea2:	ff 90       	pop	r15
    2ea4:	ef 90       	pop	r14
    2ea6:	df 90       	pop	r13
    2ea8:	cf 90       	pop	r12
    2eaa:	bf 90       	pop	r11
    2eac:	af 90       	pop	r10
    2eae:	9f 90       	pop	r9
    2eb0:	8f 90       	pop	r8
    2eb2:	08 95       	ret

00002eb4 <w5x00_read>:
 *         buffer : pointer to a read buffer.
 *         len : buffer length.
 * @retval received data length or SOCKERR code
 */
int w5x00_read(Network* n, unsigned char* buffer, int len, long time)
{
    2eb4:	ef 92       	push	r14
    2eb6:	ff 92       	push	r15
    2eb8:	0f 93       	push	r16
    2eba:	1f 93       	push	r17
    2ebc:	cf 93       	push	r28
    2ebe:	df 93       	push	r29
    2ec0:	ec 01       	movw	r28, r24
    2ec2:	8b 01       	movw	r16, r22
    2ec4:	7a 01       	movw	r14, r20

	if((getSn_SR(n->my_socket) == SOCK_ESTABLISHED) && (getSn_RX_RSR(n->my_socket)>0))
    2ec6:	88 81       	ld	r24, Y
    2ec8:	38 2f       	mov	r19, r24
    2eca:	20 e0       	ldi	r18, 0x00	; 0
    2ecc:	b9 01       	movw	r22, r18
    2ece:	6d 5f       	subi	r22, 0xFD	; 253
    2ed0:	7b 4f       	sbci	r23, 0xFB	; 251
    2ed2:	07 2e       	mov	r0, r23
    2ed4:	00 0c       	add	r0, r0
    2ed6:	88 0b       	sbc	r24, r24
    2ed8:	99 0b       	sbc	r25, r25
    2eda:	0e 94 f3 05 	call	0xbe6	; 0xbe6 <WIZCHIP_READ>
    2ede:	87 31       	cpi	r24, 0x17	; 23
    2ee0:	61 f4       	brne	.+24     	; 0x2efa <w5x00_read+0x46>
    2ee2:	88 81       	ld	r24, Y
    2ee4:	0e 94 27 07 	call	0xe4e	; 0xe4e <getSn_RX_RSR>
    2ee8:	89 2b       	or	r24, r25
    2eea:	51 f0       	breq	.+20     	; 0x2f00 <w5x00_read+0x4c>
		return recv(n->my_socket, buffer, len);
    2eec:	a7 01       	movw	r20, r14
    2eee:	b8 01       	movw	r22, r16
    2ef0:	88 81       	ld	r24, Y
    2ef2:	0e 94 9f 04 	call	0x93e	; 0x93e <recv>
    2ef6:	cb 01       	movw	r24, r22
    2ef8:	05 c0       	rjmp	.+10     	; 0x2f04 <w5x00_read+0x50>

	return SOCK_ERROR;
    2efa:	80 e0       	ldi	r24, 0x00	; 0
    2efc:	90 e0       	ldi	r25, 0x00	; 0
    2efe:	02 c0       	rjmp	.+4      	; 0x2f04 <w5x00_read+0x50>
    2f00:	80 e0       	ldi	r24, 0x00	; 0
    2f02:	90 e0       	ldi	r25, 0x00	; 0
}
    2f04:	df 91       	pop	r29
    2f06:	cf 91       	pop	r28
    2f08:	1f 91       	pop	r17
    2f0a:	0f 91       	pop	r16
    2f0c:	ff 90       	pop	r15
    2f0e:	ef 90       	pop	r14
    2f10:	08 95       	ret

00002f12 <w5x00_write>:
 *         buffer : pointer to a read buffer.
 *         len : buffer length.
 * @retval length of data sent or SOCKERR code
 */
int w5x00_write(Network* n, unsigned char* buffer, int len, long time)
{
    2f12:	ef 92       	push	r14
    2f14:	ff 92       	push	r15
    2f16:	0f 93       	push	r16
    2f18:	1f 93       	push	r17
    2f1a:	cf 93       	push	r28
    2f1c:	df 93       	push	r29
    2f1e:	ec 01       	movw	r28, r24
    2f20:	8b 01       	movw	r16, r22
    2f22:	7a 01       	movw	r14, r20
	if(getSn_SR(n->my_socket) == SOCK_ESTABLISHED)
    2f24:	88 81       	ld	r24, Y
    2f26:	38 2f       	mov	r19, r24
    2f28:	20 e0       	ldi	r18, 0x00	; 0
    2f2a:	b9 01       	movw	r22, r18
    2f2c:	6d 5f       	subi	r22, 0xFD	; 253
    2f2e:	7b 4f       	sbci	r23, 0xFB	; 251
    2f30:	07 2e       	mov	r0, r23
    2f32:	00 0c       	add	r0, r0
    2f34:	88 0b       	sbc	r24, r24
    2f36:	99 0b       	sbc	r25, r25
    2f38:	0e 94 f3 05 	call	0xbe6	; 0xbe6 <WIZCHIP_READ>
    2f3c:	87 31       	cpi	r24, 0x17	; 23
    2f3e:	39 f4       	brne	.+14     	; 0x2f4e <w5x00_write+0x3c>
		return send(n->my_socket, buffer, len);
    2f40:	a7 01       	movw	r20, r14
    2f42:	b8 01       	movw	r22, r16
    2f44:	88 81       	ld	r24, Y
    2f46:	0e 94 6f 03 	call	0x6de	; 0x6de <send>
    2f4a:	cb 01       	movw	r24, r22
    2f4c:	02 c0       	rjmp	.+4      	; 0x2f52 <w5x00_write+0x40>

	return SOCK_ERROR;
    2f4e:	80 e0       	ldi	r24, 0x00	; 0
    2f50:	90 e0       	ldi	r25, 0x00	; 0
}
    2f52:	df 91       	pop	r29
    2f54:	cf 91       	pop	r28
    2f56:	1f 91       	pop	r17
    2f58:	0f 91       	pop	r16
    2f5a:	ff 90       	pop	r15
    2f5c:	ef 90       	pop	r14
    2f5e:	08 95       	ret

00002f60 <w5x00_disconnect>:
 * @param  n : pointer to a Network structure
 *         that contains the configuration information for the Network.
 */
void w5x00_disconnect(Network* n)
{
	disconnect(n->my_socket);
    2f60:	fc 01       	movw	r30, r24
    2f62:	80 81       	ld	r24, Z
    2f64:	0e 94 eb 02 	call	0x5d6	; 0x5d6 <disconnect>
    2f68:	08 95       	ret

00002f6a <MilliTimer_Handler>:
 * @brief MQTT MilliTimer handler
 * @note MUST BE register to your system 1m Tick timer handler.
 */
void MilliTimer_Handler(void) {
	//Wird regelmaessig angesprungen. Getestet am 22.11.2018
	MilliTimer++;
    2f6a:	80 91 21 08 	lds	r24, 0x0821	; 0x800821 <MilliTimer>
    2f6e:	90 91 22 08 	lds	r25, 0x0822	; 0x800822 <MilliTimer+0x1>
    2f72:	a0 91 23 08 	lds	r26, 0x0823	; 0x800823 <MilliTimer+0x2>
    2f76:	b0 91 24 08 	lds	r27, 0x0824	; 0x800824 <MilliTimer+0x3>
    2f7a:	01 96       	adiw	r24, 0x01	; 1
    2f7c:	a1 1d       	adc	r26, r1
    2f7e:	b1 1d       	adc	r27, r1
    2f80:	80 93 21 08 	sts	0x0821, r24	; 0x800821 <MilliTimer>
    2f84:	90 93 22 08 	sts	0x0822, r25	; 0x800822 <MilliTimer+0x1>
    2f88:	a0 93 23 08 	sts	0x0823, r26	; 0x800823 <MilliTimer+0x2>
    2f8c:	b0 93 24 08 	sts	0x0824, r27	; 0x800824 <MilliTimer+0x3>
    2f90:	08 95       	ret

00002f92 <TimerInit>:
 * @brief Timer Initialize
 * @param  timer : pointer to a Timer structure
 *         that contains the configuration information for the Timer.
 */
void TimerInit(Timer* timer) {
	timer->end_time = 0;
    2f92:	fc 01       	movw	r30, r24
    2f94:	14 82       	std	Z+4, r1	; 0x04
    2f96:	15 82       	std	Z+5, r1	; 0x05
    2f98:	16 82       	std	Z+6, r1	; 0x06
    2f9a:	17 82       	std	Z+7, r1	; 0x07
    2f9c:	08 95       	ret

00002f9e <TimerIsExpired>:
 * @param  timer : pointer to a Timer structure
 *         that contains the configuration information for the Timer.
 */
char TimerIsExpired(Timer* timer) {
	long left = timer->end_time - MilliTimer;
	return (left < 0);
    2f9e:	fc 01       	movw	r30, r24
    2fa0:	84 81       	ldd	r24, Z+4	; 0x04
    2fa2:	95 81       	ldd	r25, Z+5	; 0x05
    2fa4:	a6 81       	ldd	r26, Z+6	; 0x06
    2fa6:	b7 81       	ldd	r27, Z+7	; 0x07
    2fa8:	40 91 21 08 	lds	r20, 0x0821	; 0x800821 <MilliTimer>
    2fac:	50 91 22 08 	lds	r21, 0x0822	; 0x800822 <MilliTimer+0x1>
    2fb0:	60 91 23 08 	lds	r22, 0x0823	; 0x800823 <MilliTimer+0x2>
    2fb4:	70 91 24 08 	lds	r23, 0x0824	; 0x800824 <MilliTimer+0x3>
    2fb8:	84 1b       	sub	r24, r20
    2fba:	95 0b       	sbc	r25, r21
    2fbc:	a6 0b       	sbc	r26, r22
    2fbe:	b7 0b       	sbc	r27, r23
    2fc0:	88 27       	eor	r24, r24
    2fc2:	b7 fd       	sbrc	r27, 7
    2fc4:	83 95       	inc	r24
    2fc6:	99 27       	eor	r25, r25
    2fc8:	aa 27       	eor	r26, r26
    2fca:	bb 27       	eor	r27, r27
}
    2fcc:	08 95       	ret

00002fce <TimerCountdownMS>:
 * @brief Countdown millisecond Timer
 * @param  timer : pointer to a Timer structure
 *         that contains the configuration information for the Timer.
 *         timeout : setting timeout millisecond.
 */
void TimerCountdownMS(Timer* timer, unsigned int timeout) {
    2fce:	9b 01       	movw	r18, r22
	timer->end_time = MilliTimer + timeout;
    2fd0:	40 91 21 08 	lds	r20, 0x0821	; 0x800821 <MilliTimer>
    2fd4:	50 91 22 08 	lds	r21, 0x0822	; 0x800822 <MilliTimer+0x1>
    2fd8:	60 91 23 08 	lds	r22, 0x0823	; 0x800823 <MilliTimer+0x2>
    2fdc:	70 91 24 08 	lds	r23, 0x0824	; 0x800824 <MilliTimer+0x3>
    2fe0:	42 0f       	add	r20, r18
    2fe2:	53 1f       	adc	r21, r19
    2fe4:	61 1d       	adc	r22, r1
    2fe6:	71 1d       	adc	r23, r1
    2fe8:	fc 01       	movw	r30, r24
    2fea:	44 83       	std	Z+4, r20	; 0x04
    2fec:	55 83       	std	Z+5, r21	; 0x05
    2fee:	66 83       	std	Z+6, r22	; 0x06
    2ff0:	77 83       	std	Z+7, r23	; 0x07
    2ff2:	08 95       	ret

00002ff4 <TimerCountdown>:
 * @param  timer : pointer to a Timer structure
 *         that contains the configuration information for the Timer.
 *         timeout : setting timeout millisecond.
 */
void TimerCountdown(Timer* timer, unsigned int timeout) {
	timer->end_time = MilliTimer + (timeout * 1000);
    2ff4:	48 ee       	ldi	r20, 0xE8	; 232
    2ff6:	53 e0       	ldi	r21, 0x03	; 3
    2ff8:	64 9f       	mul	r22, r20
    2ffa:	90 01       	movw	r18, r0
    2ffc:	65 9f       	mul	r22, r21
    2ffe:	30 0d       	add	r19, r0
    3000:	74 9f       	mul	r23, r20
    3002:	30 0d       	add	r19, r0
    3004:	11 24       	eor	r1, r1
    3006:	40 91 21 08 	lds	r20, 0x0821	; 0x800821 <MilliTimer>
    300a:	50 91 22 08 	lds	r21, 0x0822	; 0x800822 <MilliTimer+0x1>
    300e:	60 91 23 08 	lds	r22, 0x0823	; 0x800823 <MilliTimer+0x2>
    3012:	70 91 24 08 	lds	r23, 0x0824	; 0x800824 <MilliTimer+0x3>
    3016:	42 0f       	add	r20, r18
    3018:	53 1f       	adc	r21, r19
    301a:	61 1d       	adc	r22, r1
    301c:	71 1d       	adc	r23, r1
    301e:	fc 01       	movw	r30, r24
    3020:	44 83       	std	Z+4, r20	; 0x04
    3022:	55 83       	std	Z+5, r21	; 0x05
    3024:	66 83       	std	Z+6, r22	; 0x06
    3026:	77 83       	std	Z+7, r23	; 0x07
    3028:	08 95       	ret

0000302a <TimerLeftMS>:
 * @param  timer : pointer to a Timer structure
 *         that contains the configuration information for the Timer.
 */
int TimerLeftMS(Timer* timer) {
	long left = timer->end_time - MilliTimer;
	return (left < 0) ? 0 : left;
    302a:	fc 01       	movw	r30, r24
    302c:	84 81       	ldd	r24, Z+4	; 0x04
    302e:	95 81       	ldd	r25, Z+5	; 0x05
    3030:	a6 81       	ldd	r26, Z+6	; 0x06
    3032:	b7 81       	ldd	r27, Z+7	; 0x07
    3034:	40 91 21 08 	lds	r20, 0x0821	; 0x800821 <MilliTimer>
    3038:	50 91 22 08 	lds	r21, 0x0822	; 0x800822 <MilliTimer+0x1>
    303c:	60 91 23 08 	lds	r22, 0x0823	; 0x800823 <MilliTimer+0x2>
    3040:	70 91 24 08 	lds	r23, 0x0824	; 0x800824 <MilliTimer+0x3>
    3044:	84 1b       	sub	r24, r20
    3046:	95 0b       	sbc	r25, r21
    3048:	a6 0b       	sbc	r26, r22
    304a:	b7 0b       	sbc	r27, r23
    304c:	1a f4       	brpl	.+6      	; 0x3054 <TimerLeftMS+0x2a>
    304e:	80 e0       	ldi	r24, 0x00	; 0
    3050:	90 e0       	ldi	r25, 0x00	; 0
    3052:	dc 01       	movw	r26, r24
}
    3054:	08 95       	ret

00003056 <NewNetwork>:
 * @param  n : pointer to a Network structure
 *         that contains the configuration information for the Network.
 *         sn : socket number where x can be (0..7).
 * @retval None
 */
void NewNetwork(Network* n, int sn) {
    3056:	fc 01       	movw	r30, r24
	n->my_socket = sn;
    3058:	71 83       	std	Z+1, r23	; 0x01
    305a:	60 83       	st	Z, r22
	n->mqttread = w5x00_read;
    305c:	8a e5       	ldi	r24, 0x5A	; 90
    305e:	97 e1       	ldi	r25, 0x17	; 23
    3060:	93 83       	std	Z+3, r25	; 0x03
    3062:	82 83       	std	Z+2, r24	; 0x02
	n->mqttwrite = w5x00_write;
    3064:	89 e8       	ldi	r24, 0x89	; 137
    3066:	97 e1       	ldi	r25, 0x17	; 23
    3068:	95 83       	std	Z+5, r25	; 0x05
    306a:	84 83       	std	Z+4, r24	; 0x04
	n->disconnect = w5x00_disconnect;
    306c:	80 eb       	ldi	r24, 0xB0	; 176
    306e:	97 e1       	ldi	r25, 0x17	; 23
    3070:	97 83       	std	Z+7, r25	; 0x07
    3072:	86 83       	std	Z+6, r24	; 0x06
    3074:	08 95       	ret

00003076 <debug_uart_transmit_mqtt>:

// function to send data
void debug_uart_transmit_mqtt (char data)
{
	// Wait for empty transmit buffer 
	while ( !( UCSR0A & (1<<UDRE0)) )
    3076:	e0 ec       	ldi	r30, 0xC0	; 192
    3078:	f0 e0       	ldi	r31, 0x00	; 0
    307a:	90 81       	ld	r25, Z
    307c:	95 ff       	sbrs	r25, 5
    307e:	fd cf       	rjmp	.-6      	; 0x307a <debug_uart_transmit_mqtt+0x4>
	;
	// Put data into buffer, sends the data 
	UDR0 = data;                                  // load data in the register
    3080:	80 93 c6 00 	sts	0x00C6, r24	; 0x8000c6 <__TEXT_REGION_LENGTH__+0x7e00c6>
    3084:	08 95       	ret

00003086 <debug_uart_transmit_string_mqtt>:
}


void debug_uart_transmit_string_mqtt(char *transmitString)
{
    3086:	df 92       	push	r13
    3088:	ef 92       	push	r14
    308a:	ff 92       	push	r15
    308c:	0f 93       	push	r16
    308e:	1f 93       	push	r17
    3090:	cf 93       	push	r28
    3092:	df 93       	push	r29
    3094:	1f 92       	push	r1
    3096:	cd b7       	in	r28, 0x3d	; 61
    3098:	de b7       	in	r29, 0x3e	; 62
	volatile bool EndOfString = false;
    309a:	19 82       	std	Y+1, r1	; 0x01
	int i = 0;
	while ((i<30) && !(EndOfString))
    309c:	29 81       	ldd	r18, Y+1	; 0x01
    309e:	21 11       	cpse	r18, r1
    30a0:	1a c0       	rjmp	.+52     	; 0x30d6 <debug_uart_transmit_string_mqtt+0x50>
    30a2:	7c 01       	movw	r14, r24
    30a4:	00 e0       	ldi	r16, 0x00	; 0
    30a6:	10 e0       	ldi	r17, 0x00	; 0
			debug_uart_transmit_mqtt(transmitString[i]);
			i++;
		}
		else
		{
			EndOfString = true;
    30a8:	dd 24       	eor	r13, r13
    30aa:	d3 94       	inc	r13
{
	volatile bool EndOfString = false;
	int i = 0;
	while ((i<30) && !(EndOfString))
	{
		if (transmitString[i] != '\n')
    30ac:	f7 01       	movw	r30, r14
    30ae:	e0 0f       	add	r30, r16
    30b0:	f1 1f       	adc	r31, r17
    30b2:	80 81       	ld	r24, Z
    30b4:	8a 30       	cpi	r24, 0x0A	; 10
    30b6:	29 f0       	breq	.+10     	; 0x30c2 <debug_uart_transmit_string_mqtt+0x3c>
		{
			debug_uart_transmit_mqtt(transmitString[i]);
    30b8:	0e 94 3b 18 	call	0x3076	; 0x3076 <debug_uart_transmit_mqtt>
			i++;
    30bc:	0f 5f       	subi	r16, 0xFF	; 255
    30be:	1f 4f       	sbci	r17, 0xFF	; 255
    30c0:	04 c0       	rjmp	.+8      	; 0x30ca <debug_uart_transmit_string_mqtt+0x44>
		}
		else
		{
			EndOfString = true;
    30c2:	d9 82       	std	Y+1, r13	; 0x01
			debug_uart_transmit_mqtt('\n');
    30c4:	8a e0       	ldi	r24, 0x0A	; 10
    30c6:	0e 94 3b 18 	call	0x3076	; 0x3076 <debug_uart_transmit_mqtt>

void debug_uart_transmit_string_mqtt(char *transmitString)
{
	volatile bool EndOfString = false;
	int i = 0;
	while ((i<30) && !(EndOfString))
    30ca:	0e 31       	cpi	r16, 0x1E	; 30
    30cc:	11 05       	cpc	r17, r1
    30ce:	1c f4       	brge	.+6      	; 0x30d6 <debug_uart_transmit_string_mqtt+0x50>
    30d0:	99 81       	ldd	r25, Y+1	; 0x01
    30d2:	99 23       	and	r25, r25
    30d4:	59 f3       	breq	.-42     	; 0x30ac <debug_uart_transmit_string_mqtt+0x26>
		{
			EndOfString = true;
			debug_uart_transmit_mqtt('\n');
		}
	}
}
    30d6:	0f 90       	pop	r0
    30d8:	df 91       	pop	r29
    30da:	cf 91       	pop	r28
    30dc:	1f 91       	pop	r17
    30de:	0f 91       	pop	r16
    30e0:	ff 90       	pop	r15
    30e2:	ef 90       	pop	r14
    30e4:	df 90       	pop	r13
    30e6:	08 95       	ret

000030e8 <ConnectNetwork>:
 *         that contains the configuration information for the Network.
 *         ip : server iP.
 *         port : server port.
 */
void ConnectNetwork(Network* n, uint8_t* ip, uint16_t port)
{
    30e8:	ef 92       	push	r14
    30ea:	ff 92       	push	r15
    30ec:	0f 93       	push	r16
    30ee:	1f 93       	push	r17
    30f0:	cf 93       	push	r28
    30f2:	df 93       	push	r29
    30f4:	ec 01       	movw	r28, r24
    30f6:	8b 01       	movw	r16, r22
    30f8:	7a 01       	movw	r14, r20
	uint16_t myport = 12345;
	debug_uart_transmit_string_mqtt("try2Connect\n"); 
    30fa:	89 e3       	ldi	r24, 0x39	; 57
    30fc:	92 e0       	ldi	r25, 0x02	; 2
    30fe:	0e 94 43 18 	call	0x3086	; 0x3086 <debug_uart_transmit_string_mqtt>
	socket(n->my_socket,Sn_MR_TCP,myport,0);
    3102:	20 e0       	ldi	r18, 0x00	; 0
    3104:	49 e3       	ldi	r20, 0x39	; 57
    3106:	50 e3       	ldi	r21, 0x30	; 48
    3108:	61 e0       	ldi	r22, 0x01	; 1
    310a:	88 81       	ld	r24, Y
    310c:	0e 94 02 01 	call	0x204	; 0x204 <socket>
	debug_uart_transmit_string_mqtt("socket\n");
    3110:	86 e4       	ldi	r24, 0x46	; 70
    3112:	92 e0       	ldi	r25, 0x02	; 2
    3114:	0e 94 43 18 	call	0x3086	; 0x3086 <debug_uart_transmit_string_mqtt>
	connect(n->my_socket,ip,port);
    3118:	a7 01       	movw	r20, r14
    311a:	b8 01       	movw	r22, r16
    311c:	88 81       	ld	r24, Y
    311e:	0e 94 02 02 	call	0x404	; 0x404 <connect>
	debug_uart_transmit_string_mqtt("connect\n");
    3122:	8e e4       	ldi	r24, 0x4E	; 78
    3124:	92 e0       	ldi	r25, 0x02	; 2
    3126:	0e 94 43 18 	call	0x3086	; 0x3086 <debug_uart_transmit_string_mqtt>
}
    312a:	df 91       	pop	r29
    312c:	cf 91       	pop	r28
    312e:	1f 91       	pop	r17
    3130:	0f 91       	pop	r16
    3132:	ff 90       	pop	r15
    3134:	ef 90       	pop	r14
    3136:	08 95       	ret

00003138 <_Z14messageArrivedP11MessageData>:
	#else
		//round up by default
		__ticks_dc = (uint32_t)(ceil(fabs(__tmp)));
	#endif

	__builtin_avr_delay_cycles(__ticks_dc);
    3138:	ef 92       	push	r14
    313a:	ff 92       	push	r15
    313c:	0f 93       	push	r16
    313e:	1f 93       	push	r17
    3140:	cf 93       	push	r28
    3142:	df 93       	push	r29
    3144:	cd b7       	in	r28, 0x3d	; 61
    3146:	de b7       	in	r29, 0x3e	; 62
    3148:	c4 56       	subi	r28, 0x64	; 100
    314a:	d1 09       	sbc	r29, r1
    314c:	0f b6       	in	r0, 0x3f	; 63
    314e:	f8 94       	cli
    3150:	de bf       	out	0x3e, r29	; 62
    3152:	0f be       	out	0x3f, r0	; 63
    3154:	cd bf       	out	0x3d, r28	; 61
    3156:	dc 01       	movw	r26, r24
    3158:	0d 91       	ld	r16, X+
    315a:	1c 91       	ld	r17, X
    315c:	80 91 29 01 	lds	r24, 0x0129	; 0x800129 <opts+0xf>
    3160:	90 91 2a 01 	lds	r25, 0x012A	; 0x80012a <opts+0x10>
    3164:	89 2b       	or	r24, r25
    3166:	49 f1       	breq	.+82     	; 0x31ba <_Z14messageArrivedP11MessageData+0x82>
    3168:	f8 01       	movw	r30, r16
    316a:	65 81       	ldd	r22, Z+5	; 0x05
    316c:	76 81       	ldd	r23, Z+6	; 0x06
    316e:	ce 01       	movw	r24, r28
    3170:	01 96       	adiw	r24, 0x01	; 1
    3172:	7c 01       	movw	r14, r24
    3174:	47 81       	ldd	r20, Z+7	; 0x07
    3176:	50 85       	ldd	r21, Z+8	; 0x08
    3178:	0e 94 4e 1d 	call	0x3a9c	; 0x3a9c <memcpy>
    317c:	d8 01       	movw	r26, r16
    317e:	17 96       	adiw	r26, 0x07	; 7
    3180:	ed 91       	ld	r30, X+
    3182:	fc 91       	ld	r31, X
    3184:	18 97       	sbiw	r26, 0x08	; 8
    3186:	ec 0f       	add	r30, r28
    3188:	fd 1f       	adc	r31, r29
    318a:	8a e0       	ldi	r24, 0x0A	; 10
    318c:	82 83       	std	Z+2, r24	; 0x02
    318e:	ff 92       	push	r15
    3190:	ef 92       	push	r14
    3192:	87 e5       	ldi	r24, 0x57	; 87
    3194:	92 e0       	ldi	r25, 0x02	; 2
    3196:	9f 93       	push	r25
    3198:	8f 93       	push	r24
    319a:	83 eb       	ldi	r24, 0xB3	; 179
    319c:	93 e0       	ldi	r25, 0x03	; 3
    319e:	9f 93       	push	r25
    31a0:	8f 93       	push	r24
    31a2:	0e 94 8a 1d 	call	0x3b14	; 0x3b14 <sprintf>
    31a6:	83 eb       	ldi	r24, 0xB3	; 179
    31a8:	93 e0       	ldi	r25, 0x03	; 3
    31aa:	0e 94 16 1d 	call	0x3a2c	; 0x3a2c <_Z20uart_transmit_stringPc>
    31ae:	0f 90       	pop	r0
    31b0:	0f 90       	pop	r0
    31b2:	0f 90       	pop	r0
    31b4:	0f 90       	pop	r0
    31b6:	0f 90       	pop	r0
    31b8:	0f 90       	pop	r0
    31ba:	80 91 1c 01 	lds	r24, 0x011C	; 0x80011c <opts+0x2>
    31be:	90 91 1d 01 	lds	r25, 0x011D	; 0x80011d <opts+0x3>
    31c2:	89 2b       	or	r24, r25
    31c4:	e9 f0       	breq	.+58     	; 0x3200 <_Z14messageArrivedP11MessageData+0xc8>
    31c6:	f8 01       	movw	r30, r16
    31c8:	86 81       	ldd	r24, Z+6	; 0x06
    31ca:	8f 93       	push	r24
    31cc:	85 81       	ldd	r24, Z+5	; 0x05
    31ce:	8f 93       	push	r24
    31d0:	80 85       	ldd	r24, Z+8	; 0x08
    31d2:	8f 93       	push	r24
    31d4:	87 81       	ldd	r24, Z+7	; 0x07
    31d6:	8f 93       	push	r24
    31d8:	8c e5       	ldi	r24, 0x5C	; 92
    31da:	92 e0       	ldi	r25, 0x02	; 2
    31dc:	9f 93       	push	r25
    31de:	8f 93       	push	r24
    31e0:	83 eb       	ldi	r24, 0xB3	; 179
    31e2:	93 e0       	ldi	r25, 0x03	; 3
    31e4:	9f 93       	push	r25
    31e6:	8f 93       	push	r24
    31e8:	0e 94 8a 1d 	call	0x3b14	; 0x3b14 <sprintf>
    31ec:	83 eb       	ldi	r24, 0xB3	; 179
    31ee:	93 e0       	ldi	r25, 0x03	; 3
    31f0:	0e 94 16 1d 	call	0x3a2c	; 0x3a2c <_Z20uart_transmit_stringPc>
    31f4:	0f b6       	in	r0, 0x3f	; 63
    31f6:	f8 94       	cli
    31f8:	de bf       	out	0x3e, r29	; 62
    31fa:	0f be       	out	0x3f, r0	; 63
    31fc:	cd bf       	out	0x3d, r28	; 61
    31fe:	29 c0       	rjmp	.+82     	; 0x3252 <_Z14messageArrivedP11MessageData+0x11a>
    3200:	ea e1       	ldi	r30, 0x1A	; 26
    3202:	f1 e0       	ldi	r31, 0x01	; 1
    3204:	85 81       	ldd	r24, Z+5	; 0x05
    3206:	8f 93       	push	r24
    3208:	84 81       	ldd	r24, Z+4	; 0x04
    320a:	8f 93       	push	r24
    320c:	d8 01       	movw	r26, r16
    320e:	16 96       	adiw	r26, 0x06	; 6
    3210:	8c 91       	ld	r24, X
    3212:	16 97       	sbiw	r26, 0x06	; 6
    3214:	8f 93       	push	r24
    3216:	15 96       	adiw	r26, 0x05	; 5
    3218:	8c 91       	ld	r24, X
    321a:	15 97       	sbiw	r26, 0x05	; 5
    321c:	8f 93       	push	r24
    321e:	18 96       	adiw	r26, 0x08	; 8
    3220:	8c 91       	ld	r24, X
    3222:	18 97       	sbiw	r26, 0x08	; 8
    3224:	8f 93       	push	r24
    3226:	17 96       	adiw	r26, 0x07	; 7
    3228:	8c 91       	ld	r24, X
    322a:	8f 93       	push	r24
    322c:	81 e6       	ldi	r24, 0x61	; 97
    322e:	92 e0       	ldi	r25, 0x02	; 2
    3230:	9f 93       	push	r25
    3232:	8f 93       	push	r24
    3234:	83 eb       	ldi	r24, 0xB3	; 179
    3236:	93 e0       	ldi	r25, 0x03	; 3
    3238:	9f 93       	push	r25
    323a:	8f 93       	push	r24
    323c:	0e 94 8a 1d 	call	0x3b14	; 0x3b14 <sprintf>
    3240:	83 eb       	ldi	r24, 0xB3	; 179
    3242:	93 e0       	ldi	r25, 0x03	; 3
    3244:	0e 94 16 1d 	call	0x3a2c	; 0x3a2c <_Z20uart_transmit_stringPc>
    3248:	0f b6       	in	r0, 0x3f	; 63
    324a:	f8 94       	cli
    324c:	de bf       	out	0x3e, r29	; 62
    324e:	0f be       	out	0x3f, r0	; 63
    3250:	cd bf       	out	0x3d, r28	; 61
    3252:	cc 59       	subi	r28, 0x9C	; 156
    3254:	df 4f       	sbci	r29, 0xFF	; 255
    3256:	0f b6       	in	r0, 0x3f	; 63
    3258:	f8 94       	cli
    325a:	de bf       	out	0x3e, r29	; 62
    325c:	0f be       	out	0x3f, r0	; 63
    325e:	cd bf       	out	0x3d, r28	; 61
    3260:	df 91       	pop	r29
    3262:	cf 91       	pop	r28
    3264:	1f 91       	pop	r17
    3266:	0f 91       	pop	r16
    3268:	ff 90       	pop	r15
    326a:	ef 90       	pop	r14
    326c:	08 95       	ret

0000326e <main>:
{
	_delay_ms(1);
}

int main(void)
{
    326e:	cf 93       	push	r28
    3270:	df 93       	push	r29
    3272:	cd b7       	in	r28, 0x3d	; 61
    3274:	de b7       	in	r29, 0x3e	; 62
    3276:	c7 50       	subi	r28, 0x07	; 7
    3278:	d1 40       	sbci	r29, 0x01	; 1
    327a:	0f b6       	in	r0, 0x3f	; 63
    327c:	f8 94       	cli
    327e:	de bf       	out	0x3e, r29	; 62
    3280:	0f be       	out	0x3f, r0	; 63
    3282:	cd bf       	out	0x3d, r28	; 61
	//Einstellungen fr den Timer
	TCCR0A |= (1 << COM0A1);
    3284:	84 b5       	in	r24, 0x24	; 36
    3286:	80 68       	ori	r24, 0x80	; 128
    3288:	84 bd       	out	0x24, r24	; 36
	TCCR0B |= (1 << CS01) | (1 << CS00);
    328a:	85 b5       	in	r24, 0x25	; 37
    328c:	83 60       	ori	r24, 0x03	; 3
    328e:	85 bd       	out	0x25, r24	; 37
	OCR0A = 125-1;
    3290:	8c e7       	ldi	r24, 0x7C	; 124
    3292:	87 bd       	out	0x27, r24	; 39
	TIMSK0 |= (1<<OCIE0A);
    3294:	ee e6       	ldi	r30, 0x6E	; 110
    3296:	f0 e0       	ldi	r31, 0x00	; 0
    3298:	80 81       	ld	r24, Z
    329a:	82 60       	ori	r24, 0x02	; 2
    329c:	80 83       	st	Z, r24
	sei();
    329e:	78 94       	sei
	
	//led_ctrl led1,led2;
	Pin Led1('C', 5, false);
    32a0:	20 e0       	ldi	r18, 0x00	; 0
    32a2:	45 e0       	ldi	r20, 0x05	; 5
    32a4:	63 e4       	ldi	r22, 0x43	; 67
    32a6:	ce 01       	movw	r24, r28
    32a8:	01 96       	adiw	r24, 0x01	; 1
    32aa:	0e 94 a5 1b 	call	0x374a	; 0x374a <_ZN3PinC1Echb>
	Pin Led2('C', 2, false);
    32ae:	20 e0       	ldi	r18, 0x00	; 0
    32b0:	42 e0       	ldi	r20, 0x02	; 2
    32b2:	63 e4       	ldi	r22, 0x43	; 67
    32b4:	ce 01       	movw	r24, r28
    32b6:	05 96       	adiw	r24, 0x05	; 5
    32b8:	0e 94 a5 1b 	call	0x374a	; 0x374a <_ZN3PinC1Echb>
	int i;
	int rc = 0;
	unsigned char buf[100];
	//Usart initialization for Debug.
	//USART1Initialze();
	uart_init(MYUBRR);
    32bc:	80 e1       	ldi	r24, 0x10	; 16
    32be:	90 e0       	ldi	r25, 0x00	; 0
    32c0:	0e 94 03 1d 	call	0x3a06	; 0x3a06 <_Z9uart_initj>
	uart_transmit_string("USART initialized.\n");
    32c4:	88 e6       	ldi	r24, 0x68	; 104
    32c6:	92 e0       	ldi	r25, 0x02	; 2
    32c8:	0e 94 16 1d 	call	0x3a2c	; 0x3a2c <_Z20uart_transmit_stringPc>
	spi_init_master();
    32cc:	0e 94 fd 1c 	call	0x39fa	; 0x39fa <_Z15spi_init_masterv>
		printf("%02x ",mac_address[i]);
	}
	printf("\n\r");*/

	//LED initialization.
	Led1.setze_Status(false);
    32d0:	60 e0       	ldi	r22, 0x00	; 0
    32d2:	ce 01       	movw	r24, r28
    32d4:	01 96       	adiw	r24, 0x01	; 1
    32d6:	0e 94 ac 1b 	call	0x3758	; 0x3758 <_ZN3Pin12setze_StatusEb>
	Led2.setze_Status(false);
    32da:	60 e0       	ldi	r22, 0x00	; 0
    32dc:	ce 01       	movw	r24, r28
    32de:	05 96       	adiw	r24, 0x05	; 5
    32e0:	0e 94 ac 1b 	call	0x3758	; 0x3758 <_ZN3Pin12setze_StatusEb>
	uart_transmit_string("Leds gesetzt.\n");
    32e4:	8c e7       	ldi	r24, 0x7C	; 124
    32e6:	92 e0       	ldi	r25, 0x02	; 2
    32e8:	0e 94 16 1d 	call	0x3a2c	; 0x3a2c <_Z20uart_transmit_stringPc>

	//Hier hing es


	//Set network informations
	Led1.setze_Status(true);
    32ec:	61 e0       	ldi	r22, 0x01	; 1
    32ee:	ce 01       	movw	r24, r28
    32f0:	01 96       	adiw	r24, 0x01	; 1
    32f2:	0e 94 ac 1b 	call	0x3758	; 0x3758 <_ZN3Pin12setze_StatusEb>
	wizchip_setnetinfo(&gWIZNETINFO);
    32f6:	8b e2       	ldi	r24, 0x2B	; 43
    32f8:	91 e0       	ldi	r25, 0x01	; 1
    32fa:	0e 94 be 0a 	call	0x157c	; 0x157c <wizchip_setnetinfo>
	uart_transmit_string("wizchip_setnetinfo\n");
    32fe:	8b e8       	ldi	r24, 0x8B	; 139
    3300:	92 e0       	ldi	r25, 0x02	; 2
    3302:	0e 94 16 1d 	call	0x3a2c	; 0x3a2c <_Z20uart_transmit_stringPc>

	setSHAR(mac_address);
    3306:	26 e0       	ldi	r18, 0x06	; 6
    3308:	30 e0       	ldi	r19, 0x00	; 0
    330a:	47 e1       	ldi	r20, 0x17	; 23
    330c:	58 e0       	ldi	r21, 0x08	; 8
    330e:	69 e0       	ldi	r22, 0x09	; 9
    3310:	70 e0       	ldi	r23, 0x00	; 0
    3312:	80 e0       	ldi	r24, 0x00	; 0
    3314:	90 e0       	ldi	r25, 0x00	; 0
    3316:	0e 94 1d 06 	call	0xc3a	; 0xc3a <WIZCHIP_WRITE_BUF>
    uart_transmit_string("MAC Adresse gesetzt\n"); 
    331a:	8f e9       	ldi	r24, 0x9F	; 159
    331c:	92 e0       	ldi	r25, 0x02	; 2
    331e:	0e 94 16 1d 	call	0x3a2c	; 0x3a2c <_Z20uart_transmit_stringPc>
	//print_network_information();

	Network n;
	MQTTClient c;
	uart_transmit_string("Neues Netzwerk erstellt.\n"); 
    3322:	84 eb       	ldi	r24, 0xB4	; 180
    3324:	92 e0       	ldi	r25, 0x02	; 2
    3326:	0e 94 16 1d 	call	0x3a2c	; 0x3a2c <_Z20uart_transmit_stringPc>

	NewNetwork(&n, TCP_SOCKET);
    332a:	60 e0       	ldi	r22, 0x00	; 0
    332c:	70 e0       	ldi	r23, 0x00	; 0
    332e:	ce 01       	movw	r24, r28
    3330:	83 59       	subi	r24, 0x93	; 147
    3332:	9f 4f       	sbci	r25, 0xFF	; 255
    3334:	0e 94 2b 18 	call	0x3056	; 0x3056 <NewNetwork>
	uart_transmit_string("NewNetwork\n");
    3338:	8e ec       	ldi	r24, 0xCE	; 206
    333a:	92 e0       	ldi	r25, 0x02	; 2
    333c:	0e 94 16 1d 	call	0x3a2c	; 0x3a2c <_Z20uart_transmit_stringPc>
	ConnectNetwork(&n, targetIP, targetPort);
    3340:	40 91 42 01 	lds	r20, 0x0142	; 0x800142 <targetPort>
    3344:	50 91 43 01 	lds	r21, 0x0143	; 0x800143 <targetPort+0x1>
    3348:	6d e1       	ldi	r22, 0x1D	; 29
    334a:	78 e0       	ldi	r23, 0x08	; 8
    334c:	ce 01       	movw	r24, r28
    334e:	83 59       	subi	r24, 0x93	; 147
    3350:	9f 4f       	sbci	r25, 0xFF	; 255
    3352:	0e 94 74 18 	call	0x30e8	; 0x30e8 <ConnectNetwork>
	uart_transmit_string("ConnectNetwork\n");
    3356:	8a ed       	ldi	r24, 0xDA	; 218
    3358:	92 e0       	ldi	r25, 0x02	; 2
    335a:	0e 94 16 1d 	call	0x3a2c	; 0x3a2c <_Z20uart_transmit_stringPc>
	MQTTClientInit(&c,&n,1000,buf,100,tempBuffer,2048);
    335e:	c1 2c       	mov	r12, r1
    3360:	68 94       	set
    3362:	dd 24       	eor	r13, r13
    3364:	d3 f8       	bld	r13, 3
    3366:	0f 2e       	mov	r0, r31
    3368:	f7 e1       	ldi	r31, 0x17	; 23
    336a:	ef 2e       	mov	r14, r31
    336c:	f4 e0       	ldi	r31, 0x04	; 4
    336e:	ff 2e       	mov	r15, r31
    3370:	f0 2d       	mov	r31, r0
    3372:	04 e6       	ldi	r16, 0x64	; 100
    3374:	10 e0       	ldi	r17, 0x00	; 0
    3376:	9e 01       	movw	r18, r28
    3378:	27 5f       	subi	r18, 0xF7	; 247
    337a:	3f 4f       	sbci	r19, 0xFF	; 255
    337c:	48 ee       	ldi	r20, 0xE8	; 232
    337e:	53 e0       	ldi	r21, 0x03	; 3
    3380:	be 01       	movw	r22, r28
    3382:	63 59       	subi	r22, 0x93	; 147
    3384:	7f 4f       	sbci	r23, 0xFF	; 255
    3386:	ce 01       	movw	r24, r28
    3388:	8b 58       	subi	r24, 0x8B	; 139
    338a:	9f 4f       	sbci	r25, 0xFF	; 255
    338c:	0e 94 69 0b 	call	0x16d2	; 0x16d2 <MQTTClientInit>

	uart_transmit_string("MQTT Client initialisiert\n");   
    3390:	8a ee       	ldi	r24, 0xEA	; 234
    3392:	92 e0       	ldi	r25, 0x02	; 2
    3394:	0e 94 16 1d 	call	0x3a2c	; 0x3a2c <_Z20uart_transmit_stringPc>

	MQTTPacket_connectData data = MQTTPacket_connectData_initializer;
    3398:	81 e3       	ldi	r24, 0x31	; 49
    339a:	e5 e7       	ldi	r30, 0x75	; 117
    339c:	f1 e0       	ldi	r31, 0x01	; 1
    339e:	de 01       	movw	r26, r28
    33a0:	aa 55       	subi	r26, 0x5A	; 90
    33a2:	bf 4f       	sbci	r27, 0xFF	; 255
    33a4:	01 90       	ld	r0, Z+
    33a6:	0d 92       	st	X+, r0
    33a8:	8a 95       	dec	r24
    33aa:	e1 f7       	brne	.-8      	; 0x33a4 <main+0x136>
	data.willFlag = 0;
    33ac:	ca 54       	subi	r28, 0x4A	; 74
    33ae:	df 4f       	sbci	r29, 0xFF	; 255
    33b0:	18 82       	st	Y, r1
    33b2:	c6 5b       	subi	r28, 0xB6	; 182
    33b4:	d0 40       	sbci	r29, 0x00	; 0
	data.MQTTVersion = 3;
    33b6:	83 e0       	ldi	r24, 0x03	; 3
    33b8:	c4 55       	subi	r28, 0x54	; 84
    33ba:	df 4f       	sbci	r29, 0xFF	; 255
    33bc:	88 83       	st	Y, r24
    33be:	cc 5a       	subi	r28, 0xAC	; 172
    33c0:	d0 40       	sbci	r29, 0x00	; 0
	data.clientID.cstring = opts.clientid;
    33c2:	0a e1       	ldi	r16, 0x1A	; 26
    33c4:	11 e0       	ldi	r17, 0x01	; 1
    33c6:	f8 01       	movw	r30, r16
    33c8:	80 81       	ld	r24, Z
    33ca:	91 81       	ldd	r25, Z+1	; 0x01
    33cc:	c3 55       	subi	r28, 0x53	; 83
    33ce:	df 4f       	sbci	r29, 0xFF	; 255
    33d0:	99 83       	std	Y+1, r25	; 0x01
    33d2:	88 83       	st	Y, r24
    33d4:	cd 5a       	subi	r28, 0xAD	; 173
    33d6:	d0 40       	sbci	r29, 0x00	; 0
	data.username.cstring = opts.username;
    33d8:	87 81       	ldd	r24, Z+7	; 0x07
    33da:	90 85       	ldd	r25, Z+8	; 0x08
    33dc:	c5 53       	subi	r28, 0x35	; 53
    33de:	df 4f       	sbci	r29, 0xFF	; 255
    33e0:	99 83       	std	Y+1, r25	; 0x01
    33e2:	88 83       	st	Y, r24
    33e4:	cb 5c       	subi	r28, 0xCB	; 203
    33e6:	d0 40       	sbci	r29, 0x00	; 0
	data.password.cstring = opts.password;
    33e8:	81 85       	ldd	r24, Z+9	; 0x09
    33ea:	92 85       	ldd	r25, Z+10	; 0x0a
    33ec:	cf 52       	subi	r28, 0x2F	; 47
    33ee:	df 4f       	sbci	r29, 0xFF	; 255
    33f0:	99 83       	std	Y+1, r25	; 0x01
    33f2:	88 83       	st	Y, r24
    33f4:	c1 5d       	subi	r28, 0xD1	; 209
    33f6:	d0 40       	sbci	r29, 0x00	; 0

	uart_transmit_string("MQTT Username und PW gesetzt\n");
    33f8:	85 e0       	ldi	r24, 0x05	; 5
    33fa:	93 e0       	ldi	r25, 0x03	; 3
    33fc:	0e 94 16 1d 	call	0x3a2c	; 0x3a2c <_Z20uart_transmit_stringPc>

	data.keepAliveInterval = 60;
    3400:	8c e3       	ldi	r24, 0x3C	; 60
    3402:	90 e0       	ldi	r25, 0x00	; 0
    3404:	cd 54       	subi	r28, 0x4D	; 77
    3406:	df 4f       	sbci	r29, 0xFF	; 255
    3408:	99 83       	std	Y+1, r25	; 0x01
    340a:	88 83       	st	Y, r24
    340c:	c3 5b       	subi	r28, 0xB3	; 179
    340e:	d0 40       	sbci	r29, 0x00	; 0
	data.cleansession = 1;
    3410:	81 e0       	ldi	r24, 0x01	; 1
    3412:	cb 54       	subi	r28, 0x4B	; 75
    3414:	df 4f       	sbci	r29, 0xFF	; 255
    3416:	88 83       	st	Y, r24
    3418:	c5 5b       	subi	r28, 0xB5	; 181
    341a:	d0 40       	sbci	r29, 0x00	; 0

	rc = MQTTConnect(&c, &data);
    341c:	be 01       	movw	r22, r28
    341e:	6a 55       	subi	r22, 0x5A	; 90
    3420:	7f 4f       	sbci	r23, 0xFF	; 255
    3422:	ce 01       	movw	r24, r28
    3424:	8b 58       	subi	r24, 0x8B	; 139
    3426:	9f 4f       	sbci	r25, 0xFF	; 255
    3428:	0e 94 7e 0e 	call	0x1cfc	; 0x1cfc <MQTTConnect>
    342c:	7c 01       	movw	r14, r24
	uart_transmit_string("Connected to MQTT\n");
    342e:	83 e2       	ldi	r24, 0x23	; 35
    3430:	93 e0       	ldi	r25, 0x03	; 3
    3432:	0e 94 16 1d 	call	0x3a2c	; 0x3a2c <_Z20uart_transmit_stringPc>
    } else if (__radix < 2 || __radix > 36) {
	*__s = 0;
	return __s;
    } else {
	extern char *__itoa_ncheck (int, char *, unsigned char);
	return __itoa_ncheck (__val, __s, __radix);
    3436:	4a e0       	ldi	r20, 0x0A	; 10
    3438:	be 01       	movw	r22, r28
    343a:	69 52       	subi	r22, 0x29	; 41
    343c:	7f 4f       	sbci	r23, 0xFF	; 255
    343e:	c7 01       	movw	r24, r14
    3440:	0e 94 65 1d 	call	0x3aca	; 0x3aca <__itoa_ncheck>
	char buffer [10];
	itoa(rc, buffer, 10);

	//string str = string(intStr);
	//uart_transmit_string(buffer);
	opts.showtopics = 1;
    3444:	81 e0       	ldi	r24, 0x01	; 1
    3446:	90 e0       	ldi	r25, 0x00	; 0
    3448:	f8 01       	movw	r30, r16
    344a:	90 8b       	std	Z+16, r25	; 0x10
    344c:	87 87       	std	Z+15, r24	; 0x0f

	uart_transmit_string("Subscribing to \n");
    344e:	86 e3       	ldi	r24, 0x36	; 54
    3450:	93 e0       	ldi	r25, 0x03	; 3
    3452:	0e 94 16 1d 	call	0x3a2c	; 0x3a2c <_Z20uart_transmit_stringPc>
	uart_transmit_string( "hello/wiznet \n");
    3456:	82 e6       	ldi	r24, 0x62	; 98
    3458:	93 e0       	ldi	r25, 0x03	; 3
    345a:	0e 94 16 1d 	call	0x3a2c	; 0x3a2c <_Z20uart_transmit_stringPc>
	rc = MQTTSubscribe(&c, "hello/wiznet", opts.qos, messageArrived);
    345e:	2c e9       	ldi	r18, 0x9C	; 156
    3460:	38 e1       	ldi	r19, 0x18	; 24
    3462:	f8 01       	movw	r30, r16
    3464:	46 81       	ldd	r20, Z+6	; 0x06
    3466:	67 e4       	ldi	r22, 0x47	; 71
    3468:	73 e0       	ldi	r23, 0x03	; 3
    346a:	ce 01       	movw	r24, r28
    346c:	8b 58       	subi	r24, 0x8B	; 139
    346e:	9f 4f       	sbci	r25, 0xFF	; 255
    3470:	0e 94 22 0f 	call	0x1e44	; 0x1e44 <MQTTSubscribe>
	uart_transmit_string("Subscribed to hello/wiznet \n");
    3474:	84 e5       	ldi	r24, 0x54	; 84
    3476:	93 e0       	ldi	r25, 0x03	; 3
    3478:	0e 94 16 1d 	call	0x3a2c	; 0x3a2c <_Z20uart_transmit_stringPc>
	//itoa(rc, buffer, 10);
	//uart_transmit_string(buffer);
	
	MQTTMessage pubmsg;
	char payload[30];
	sprintf(payload, "Hello from Atmel");
    347c:	ce 01       	movw	r24, r28
    347e:	86 51       	subi	r24, 0x16	; 22
    3480:	9f 4f       	sbci	r25, 0xFF	; 255
    3482:	21 e1       	ldi	r18, 0x11	; 17
    3484:	e1 e7       	ldi	r30, 0x71	; 113
    3486:	f3 e0       	ldi	r31, 0x03	; 3
    3488:	dc 01       	movw	r26, r24
    348a:	01 90       	ld	r0, Z+
    348c:	0d 92       	st	X+, r0
    348e:	2a 95       	dec	r18
    3490:	e1 f7       	brne	.-8      	; 0x348a <main+0x21c>
	pubmsg.payload = payload;
    3492:	ca 51       	subi	r28, 0x1A	; 26
    3494:	df 4f       	sbci	r29, 0xFF	; 255
    3496:	99 83       	std	Y+1, r25	; 0x01
    3498:	88 83       	st	Y, r24
    349a:	c6 5e       	subi	r28, 0xE6	; 230
    349c:	d0 40       	sbci	r29, 0x00	; 0
	pubmsg.payloadlen = strlen(payload) + 1;
    349e:	fc 01       	movw	r30, r24
    34a0:	01 90       	ld	r0, Z+
    34a2:	00 20       	and	r0, r0
    34a4:	e9 f7       	brne	.-6      	; 0x34a0 <main+0x232>
    34a6:	9f 01       	movw	r18, r30
    34a8:	28 1b       	sub	r18, r24
    34aa:	39 0b       	sbc	r19, r25
    34ac:	c8 51       	subi	r28, 0x18	; 24
    34ae:	df 4f       	sbci	r29, 0xFF	; 255
    34b0:	39 83       	std	Y+1, r19	; 0x01
    34b2:	28 83       	st	Y, r18
    34b4:	c8 5e       	subi	r28, 0xE8	; 232
    34b6:	d0 40       	sbci	r29, 0x00	; 0
	pubmsg.qos = QOS0;
    34b8:	cf 51       	subi	r28, 0x1F	; 31
    34ba:	df 4f       	sbci	r29, 0xFF	; 255
    34bc:	18 82       	st	Y, r1
    34be:	c1 5e       	subi	r28, 0xE1	; 225
    34c0:	d0 40       	sbci	r29, 0x00	; 0
	pubmsg.retained = 0;
    34c2:	ce 51       	subi	r28, 0x1E	; 30
    34c4:	df 4f       	sbci	r29, 0xFF	; 255
    34c6:	18 82       	st	Y, r1
    34c8:	c2 5e       	subi	r28, 0xE2	; 226
    34ca:	d0 40       	sbci	r29, 0x00	; 0
	char* topic = "hello/wiznet"; 
	rc = MQTTPublish(&c, topic, &pubmsg);
    34cc:	ae 01       	movw	r20, r28
    34ce:	4f 51       	subi	r20, 0x1F	; 31
    34d0:	5f 4f       	sbci	r21, 0xFF	; 255
    34d2:	67 e4       	ldi	r22, 0x47	; 71
    34d4:	73 e0       	ldi	r23, 0x03	; 3
    34d6:	ce 01       	movw	r24, r28
    34d8:	8b 58       	subi	r24, 0x8B	; 139
    34da:	9f 4f       	sbci	r25, 0xFF	; 255
    34dc:	0e 94 f0 0f 	call	0x1fe0	; 0x1fe0 <MQTTPublish>
	//int counter = 0;

    while(true)
    {
		//counter++;
    	MQTTYield(&c, data.keepAliveInterval);
    34e0:	cd 54       	subi	r28, 0x4D	; 77
    34e2:	df 4f       	sbci	r29, 0xFF	; 255
    34e4:	68 81       	ld	r22, Y
    34e6:	79 81       	ldd	r23, Y+1	; 0x01
    34e8:	c3 5b       	subi	r28, 0xB3	; 179
    34ea:	d0 40       	sbci	r29, 0x00	; 0
    34ec:	ce 01       	movw	r24, r28
    34ee:	8b 58       	subi	r24, 0x8B	; 139
    34f0:	9f 4f       	sbci	r25, 0xFF	; 255
    34f2:	0e 94 23 0e 	call	0x1c46	; 0x1c46 <MQTTYield>
    34f6:	f4 cf       	rjmp	.-24     	; 0x34e0 <main+0x272>

000034f8 <__vector_14>:
}



ISR (TIMER0_COMPA_vect)
{
    34f8:	1f 92       	push	r1
    34fa:	0f 92       	push	r0
    34fc:	0f b6       	in	r0, 0x3f	; 63
    34fe:	0f 92       	push	r0
    3500:	11 24       	eor	r1, r1
    3502:	2f 93       	push	r18
    3504:	3f 93       	push	r19
    3506:	4f 93       	push	r20
    3508:	5f 93       	push	r21
    350a:	6f 93       	push	r22
    350c:	7f 93       	push	r23
    350e:	8f 93       	push	r24
    3510:	9f 93       	push	r25
    3512:	af 93       	push	r26
    3514:	bf 93       	push	r27
    3516:	ef 93       	push	r30
    3518:	ff 93       	push	r31
	MilliTimer_Handler();
    351a:	0e 94 b5 17 	call	0x2f6a	; 0x2f6a <MilliTimer_Handler>
    351e:	ff 91       	pop	r31
    3520:	ef 91       	pop	r30
    3522:	bf 91       	pop	r27
    3524:	af 91       	pop	r26
    3526:	9f 91       	pop	r25
    3528:	8f 91       	pop	r24
    352a:	7f 91       	pop	r23
    352c:	6f 91       	pop	r22
    352e:	5f 91       	pop	r21
    3530:	4f 91       	pop	r20
    3532:	3f 91       	pop	r19
    3534:	2f 91       	pop	r18
    3536:	0f 90       	pop	r0
    3538:	0f be       	out	0x3f, r0	; 63
    353a:	0f 90       	pop	r0
    353c:	1f 90       	pop	r1
    353e:	18 95       	reti

00003540 <_GLOBAL__sub_I_targetIP>:
	char* username;
	char* password;
	unsigned char* host;
	int port;
	int showtopics;
} opts ={ (char*)"stdout-subscriber", 0, (char*)"\n", QOS0, USERNAME, PASSWORD, targetIP, targetPort, 0 };
    3540:	80 91 42 01 	lds	r24, 0x0142	; 0x800142 <targetPort>
    3544:	90 91 43 01 	lds	r25, 0x0143	; 0x800143 <targetPort+0x1>
    3548:	90 93 28 01 	sts	0x0128, r25	; 0x800128 <opts+0xe>
    354c:	80 93 27 01 	sts	0x0127, r24	; 0x800127 <opts+0xd>
    3550:	08 95       	ret

00003552 <_ZN3Pin16initialisierePinEv>:
{
	private_Eingang = is_Eingang;
}

void Pin::initialisierePin()
{
    3552:	dc 01       	movw	r26, r24
	if (private_Port == 'A')
	{
		
	}

	if (private_Port == 'B')
    3554:	8c 91       	ld	r24, X
    3556:	82 34       	cpi	r24, 0x42	; 66
    3558:	09 f0       	breq	.+2      	; 0x355c <_ZN3Pin16initialisierePinEv+0xa>
    355a:	55 c0       	rjmp	.+170    	; 0x3606 <_ZN3Pin16initialisierePinEv+0xb4>
	{
		switch(private_Nummer_Pin)
    355c:	11 96       	adiw	r26, 0x01	; 1
    355e:	ec 91       	ld	r30, X
    3560:	11 97       	sbiw	r26, 0x01	; 1
    3562:	4e 2f       	mov	r20, r30
    3564:	50 e0       	ldi	r21, 0x00	; 0
    3566:	48 30       	cpi	r20, 0x08	; 8
    3568:	51 05       	cpc	r21, r1
    356a:	08 f0       	brcs	.+2      	; 0x356e <_ZN3Pin16initialisierePinEv+0x1c>
    356c:	4c c0       	rjmp	.+152    	; 0x3606 <_ZN3Pin16initialisierePinEv+0xb4>
    356e:	fa 01       	movw	r30, r20
    3570:	ec 5c       	subi	r30, 0xCC	; 204
    3572:	ff 4f       	sbci	r31, 0xFF	; 255
    3574:	0c 94 48 1d 	jmp	0x3a90	; 0x3a90 <__tablejump2__>
		{
			case 0:	if (private_Eingang == true)
    3578:	12 96       	adiw	r26, 0x02	; 2
    357a:	8c 91       	ld	r24, X
    357c:	12 97       	sbiw	r26, 0x02	; 2
    357e:	88 23       	and	r24, r24
    3580:	11 f0       	breq	.+4      	; 0x3586 <_ZN3Pin16initialisierePinEv+0x34>
			{DDRB &= ~(1 << DDB0);}
    3582:	20 98       	cbi	0x04, 0	; 4
    3584:	40 c0       	rjmp	.+128    	; 0x3606 <_ZN3Pin16initialisierePinEv+0xb4>
			else
			{DDRB |= (1 << DDB0);}
    3586:	20 9a       	sbi	0x04, 0	; 4
    3588:	3e c0       	rjmp	.+124    	; 0x3606 <_ZN3Pin16initialisierePinEv+0xb4>
			break;
			
			case 1:	if (private_Eingang == true)
    358a:	12 96       	adiw	r26, 0x02	; 2
    358c:	8c 91       	ld	r24, X
    358e:	12 97       	sbiw	r26, 0x02	; 2
    3590:	88 23       	and	r24, r24
    3592:	11 f0       	breq	.+4      	; 0x3598 <_ZN3Pin16initialisierePinEv+0x46>
			{DDRB &= ~(1 << DDB1);}
    3594:	21 98       	cbi	0x04, 1	; 4
    3596:	37 c0       	rjmp	.+110    	; 0x3606 <_ZN3Pin16initialisierePinEv+0xb4>
			else
			{DDRB |= (1 << DDB1);}
    3598:	21 9a       	sbi	0x04, 1	; 4
    359a:	35 c0       	rjmp	.+106    	; 0x3606 <_ZN3Pin16initialisierePinEv+0xb4>
			break;
			
			case 2:	if (private_Eingang == true)
    359c:	12 96       	adiw	r26, 0x02	; 2
    359e:	8c 91       	ld	r24, X
    35a0:	12 97       	sbiw	r26, 0x02	; 2
    35a2:	88 23       	and	r24, r24
    35a4:	11 f0       	breq	.+4      	; 0x35aa <_ZN3Pin16initialisierePinEv+0x58>
			{DDRB &= ~(1 << DDB2);}
    35a6:	22 98       	cbi	0x04, 2	; 4
    35a8:	2e c0       	rjmp	.+92     	; 0x3606 <_ZN3Pin16initialisierePinEv+0xb4>
			else
			{DDRB |= (1 << DDB2);}
    35aa:	22 9a       	sbi	0x04, 2	; 4
    35ac:	2c c0       	rjmp	.+88     	; 0x3606 <_ZN3Pin16initialisierePinEv+0xb4>
			break;
			
			case 3:	if (private_Eingang == true)
    35ae:	12 96       	adiw	r26, 0x02	; 2
    35b0:	8c 91       	ld	r24, X
    35b2:	12 97       	sbiw	r26, 0x02	; 2
    35b4:	88 23       	and	r24, r24
    35b6:	11 f0       	breq	.+4      	; 0x35bc <_ZN3Pin16initialisierePinEv+0x6a>
			{DDRB &= ~(1 << DDB3);}
    35b8:	23 98       	cbi	0x04, 3	; 4
    35ba:	25 c0       	rjmp	.+74     	; 0x3606 <_ZN3Pin16initialisierePinEv+0xb4>
			else
			{DDRB |= (1 << DDB3);}
    35bc:	23 9a       	sbi	0x04, 3	; 4
    35be:	23 c0       	rjmp	.+70     	; 0x3606 <_ZN3Pin16initialisierePinEv+0xb4>
			break;
			
			case 4:	if (private_Eingang == true)
    35c0:	12 96       	adiw	r26, 0x02	; 2
    35c2:	8c 91       	ld	r24, X
    35c4:	12 97       	sbiw	r26, 0x02	; 2
    35c6:	88 23       	and	r24, r24
    35c8:	11 f0       	breq	.+4      	; 0x35ce <_ZN3Pin16initialisierePinEv+0x7c>
			{DDRB &= ~(1 << DDB4);}
    35ca:	24 98       	cbi	0x04, 4	; 4
    35cc:	1c c0       	rjmp	.+56     	; 0x3606 <_ZN3Pin16initialisierePinEv+0xb4>
			else
			{DDRB |= (1 << DDB4);}
    35ce:	24 9a       	sbi	0x04, 4	; 4
    35d0:	1a c0       	rjmp	.+52     	; 0x3606 <_ZN3Pin16initialisierePinEv+0xb4>
			break;
			
			case 5:	if (private_Eingang == true)
    35d2:	12 96       	adiw	r26, 0x02	; 2
    35d4:	8c 91       	ld	r24, X
    35d6:	12 97       	sbiw	r26, 0x02	; 2
    35d8:	88 23       	and	r24, r24
    35da:	11 f0       	breq	.+4      	; 0x35e0 <_ZN3Pin16initialisierePinEv+0x8e>
			{DDRB &= ~(1 << DDB5);}
    35dc:	25 98       	cbi	0x04, 5	; 4
    35de:	13 c0       	rjmp	.+38     	; 0x3606 <_ZN3Pin16initialisierePinEv+0xb4>
			else
			{DDRB |= (1 << DDB5);}
    35e0:	25 9a       	sbi	0x04, 5	; 4
    35e2:	11 c0       	rjmp	.+34     	; 0x3606 <_ZN3Pin16initialisierePinEv+0xb4>
			break;
			
			case 6:	if (private_Eingang == true)
    35e4:	12 96       	adiw	r26, 0x02	; 2
    35e6:	8c 91       	ld	r24, X
    35e8:	12 97       	sbiw	r26, 0x02	; 2
    35ea:	88 23       	and	r24, r24
    35ec:	11 f0       	breq	.+4      	; 0x35f2 <_ZN3Pin16initialisierePinEv+0xa0>
			{DDRB &= ~(1 << DDB6);}
    35ee:	26 98       	cbi	0x04, 6	; 4
    35f0:	0a c0       	rjmp	.+20     	; 0x3606 <_ZN3Pin16initialisierePinEv+0xb4>
			else
			{DDRB |= (1 << DDB6);}
    35f2:	26 9a       	sbi	0x04, 6	; 4
    35f4:	08 c0       	rjmp	.+16     	; 0x3606 <_ZN3Pin16initialisierePinEv+0xb4>
			break;
			
			case 7:	if (private_Eingang == true)
    35f6:	12 96       	adiw	r26, 0x02	; 2
    35f8:	8c 91       	ld	r24, X
    35fa:	12 97       	sbiw	r26, 0x02	; 2
    35fc:	88 23       	and	r24, r24
    35fe:	11 f0       	breq	.+4      	; 0x3604 <_ZN3Pin16initialisierePinEv+0xb2>
			{DDRB &= ~(1 << DDB7);}
    3600:	27 98       	cbi	0x04, 7	; 4
    3602:	01 c0       	rjmp	.+2      	; 0x3606 <_ZN3Pin16initialisierePinEv+0xb4>
			else
			{DDRB |= (1 << DDB7);}
    3604:	27 9a       	sbi	0x04, 7	; 4
			break;
			
		}
	}

	if (private_Port == 'C')
    3606:	8c 91       	ld	r24, X
    3608:	83 34       	cpi	r24, 0x43	; 67
    360a:	09 f0       	breq	.+2      	; 0x360e <_ZN3Pin16initialisierePinEv+0xbc>
    360c:	4c c0       	rjmp	.+152    	; 0x36a6 <_ZN3Pin16initialisierePinEv+0x154>
	{
		switch(private_Nummer_Pin)
    360e:	11 96       	adiw	r26, 0x01	; 1
    3610:	ec 91       	ld	r30, X
    3612:	11 97       	sbiw	r26, 0x01	; 1
    3614:	4e 2f       	mov	r20, r30
    3616:	50 e0       	ldi	r21, 0x00	; 0
    3618:	47 30       	cpi	r20, 0x07	; 7
    361a:	51 05       	cpc	r21, r1
    361c:	08 f0       	brcs	.+2      	; 0x3620 <_ZN3Pin16initialisierePinEv+0xce>
    361e:	43 c0       	rjmp	.+134    	; 0x36a6 <_ZN3Pin16initialisierePinEv+0x154>
    3620:	fa 01       	movw	r30, r20
    3622:	e4 5c       	subi	r30, 0xC4	; 196
    3624:	ff 4f       	sbci	r31, 0xFF	; 255
    3626:	0c 94 48 1d 	jmp	0x3a90	; 0x3a90 <__tablejump2__>
		{
			case 0:	if (private_Eingang == true)
    362a:	12 96       	adiw	r26, 0x02	; 2
    362c:	8c 91       	ld	r24, X
    362e:	12 97       	sbiw	r26, 0x02	; 2
    3630:	88 23       	and	r24, r24
    3632:	11 f0       	breq	.+4      	; 0x3638 <_ZN3Pin16initialisierePinEv+0xe6>
			{DDRC &= ~(1 << DDC0);}
    3634:	38 98       	cbi	0x07, 0	; 7
    3636:	37 c0       	rjmp	.+110    	; 0x36a6 <_ZN3Pin16initialisierePinEv+0x154>
			else
			{DDRC |= (1 << DDC0);}
    3638:	38 9a       	sbi	0x07, 0	; 7
    363a:	35 c0       	rjmp	.+106    	; 0x36a6 <_ZN3Pin16initialisierePinEv+0x154>
			break;
			
			case 1:	if (private_Eingang == true)
    363c:	12 96       	adiw	r26, 0x02	; 2
    363e:	8c 91       	ld	r24, X
    3640:	12 97       	sbiw	r26, 0x02	; 2
    3642:	88 23       	and	r24, r24
    3644:	11 f0       	breq	.+4      	; 0x364a <_ZN3Pin16initialisierePinEv+0xf8>
			{DDRC &= ~(1 << DDC1);}
    3646:	39 98       	cbi	0x07, 1	; 7
    3648:	2e c0       	rjmp	.+92     	; 0x36a6 <_ZN3Pin16initialisierePinEv+0x154>
			else
			{DDRC |= (1 << DDC1);}
    364a:	39 9a       	sbi	0x07, 1	; 7
    364c:	2c c0       	rjmp	.+88     	; 0x36a6 <_ZN3Pin16initialisierePinEv+0x154>
			break;
			
			case 2:	if (private_Eingang == true)
    364e:	12 96       	adiw	r26, 0x02	; 2
    3650:	8c 91       	ld	r24, X
    3652:	12 97       	sbiw	r26, 0x02	; 2
    3654:	88 23       	and	r24, r24
    3656:	11 f0       	breq	.+4      	; 0x365c <_ZN3Pin16initialisierePinEv+0x10a>
			{DDRC &= ~(1 << DDC2);}
    3658:	3a 98       	cbi	0x07, 2	; 7
    365a:	25 c0       	rjmp	.+74     	; 0x36a6 <_ZN3Pin16initialisierePinEv+0x154>
			else
			{DDRC |= (1 << DDC2);}
    365c:	3a 9a       	sbi	0x07, 2	; 7
    365e:	23 c0       	rjmp	.+70     	; 0x36a6 <_ZN3Pin16initialisierePinEv+0x154>
			break;
			
			case 3:	if (private_Eingang == true)
    3660:	12 96       	adiw	r26, 0x02	; 2
    3662:	8c 91       	ld	r24, X
    3664:	12 97       	sbiw	r26, 0x02	; 2
    3666:	88 23       	and	r24, r24
    3668:	11 f0       	breq	.+4      	; 0x366e <_ZN3Pin16initialisierePinEv+0x11c>
			{DDRC &= ~(1 << DDC3);}
    366a:	3b 98       	cbi	0x07, 3	; 7
    366c:	1c c0       	rjmp	.+56     	; 0x36a6 <_ZN3Pin16initialisierePinEv+0x154>
			else
			{DDRC |= (1 << DDC3);}
    366e:	3b 9a       	sbi	0x07, 3	; 7
    3670:	1a c0       	rjmp	.+52     	; 0x36a6 <_ZN3Pin16initialisierePinEv+0x154>
			break;
			
			case 4:	if (private_Eingang == true)
    3672:	12 96       	adiw	r26, 0x02	; 2
    3674:	8c 91       	ld	r24, X
    3676:	12 97       	sbiw	r26, 0x02	; 2
    3678:	88 23       	and	r24, r24
    367a:	11 f0       	breq	.+4      	; 0x3680 <_ZN3Pin16initialisierePinEv+0x12e>
			{DDRC &= ~(1 << DDC4);}
    367c:	3c 98       	cbi	0x07, 4	; 7
    367e:	13 c0       	rjmp	.+38     	; 0x36a6 <_ZN3Pin16initialisierePinEv+0x154>
			else
			{DDRC |= (1 << DDC4);}
    3680:	3c 9a       	sbi	0x07, 4	; 7
    3682:	11 c0       	rjmp	.+34     	; 0x36a6 <_ZN3Pin16initialisierePinEv+0x154>
			break;
			
			case 5:	if (private_Eingang == true)
    3684:	12 96       	adiw	r26, 0x02	; 2
    3686:	8c 91       	ld	r24, X
    3688:	12 97       	sbiw	r26, 0x02	; 2
    368a:	88 23       	and	r24, r24
    368c:	11 f0       	breq	.+4      	; 0x3692 <_ZN3Pin16initialisierePinEv+0x140>
			{DDRC &= ~(1 << DDC5);}
    368e:	3d 98       	cbi	0x07, 5	; 7
    3690:	0a c0       	rjmp	.+20     	; 0x36a6 <_ZN3Pin16initialisierePinEv+0x154>
			else
			{DDRC |= (1 << DDC5);}
    3692:	3d 9a       	sbi	0x07, 5	; 7
    3694:	08 c0       	rjmp	.+16     	; 0x36a6 <_ZN3Pin16initialisierePinEv+0x154>
			break;
			
			case 6:	if (private_Eingang == true)
    3696:	12 96       	adiw	r26, 0x02	; 2
    3698:	8c 91       	ld	r24, X
    369a:	12 97       	sbiw	r26, 0x02	; 2
    369c:	88 23       	and	r24, r24
    369e:	11 f0       	breq	.+4      	; 0x36a4 <_ZN3Pin16initialisierePinEv+0x152>
			{DDRC &= ~(1 << DDC6);}
    36a0:	3e 98       	cbi	0x07, 6	; 7
    36a2:	01 c0       	rjmp	.+2      	; 0x36a6 <_ZN3Pin16initialisierePinEv+0x154>
			else
			{DDRC |= (1 << DDC6);}
    36a4:	3e 9a       	sbi	0x07, 6	; 7
			break;
			
		}
	}
	
	if (private_Port == 'D')
    36a6:	8c 91       	ld	r24, X
    36a8:	84 34       	cpi	r24, 0x44	; 68
    36aa:	09 f0       	breq	.+2      	; 0x36ae <_ZN3Pin16initialisierePinEv+0x15c>
    36ac:	4d c0       	rjmp	.+154    	; 0x3748 <_ZN3Pin16initialisierePinEv+0x1f6>
	{
		switch(private_Nummer_Pin)
    36ae:	11 96       	adiw	r26, 0x01	; 1
    36b0:	ec 91       	ld	r30, X
    36b2:	11 97       	sbiw	r26, 0x01	; 1
    36b4:	4e 2f       	mov	r20, r30
    36b6:	50 e0       	ldi	r21, 0x00	; 0
    36b8:	48 30       	cpi	r20, 0x08	; 8
    36ba:	51 05       	cpc	r21, r1
    36bc:	08 f0       	brcs	.+2      	; 0x36c0 <_ZN3Pin16initialisierePinEv+0x16e>
    36be:	44 c0       	rjmp	.+136    	; 0x3748 <_ZN3Pin16initialisierePinEv+0x1f6>
    36c0:	fa 01       	movw	r30, r20
    36c2:	ed 5b       	subi	r30, 0xBD	; 189
    36c4:	ff 4f       	sbci	r31, 0xFF	; 255
    36c6:	0c 94 48 1d 	jmp	0x3a90	; 0x3a90 <__tablejump2__>
		{
			case 0:	if (private_Eingang == true)
    36ca:	12 96       	adiw	r26, 0x02	; 2
    36cc:	8c 91       	ld	r24, X
    36ce:	88 23       	and	r24, r24
    36d0:	11 f0       	breq	.+4      	; 0x36d6 <_ZN3Pin16initialisierePinEv+0x184>
			{DDRD &= ~(1 << DDD0);}
    36d2:	50 98       	cbi	0x0a, 0	; 10
    36d4:	08 95       	ret
			else
			{DDRD |= (1 << DDD0);}
    36d6:	50 9a       	sbi	0x0a, 0	; 10
    36d8:	08 95       	ret
			break;
			
			case 1:	if (private_Eingang == true)
    36da:	12 96       	adiw	r26, 0x02	; 2
    36dc:	8c 91       	ld	r24, X
    36de:	88 23       	and	r24, r24
    36e0:	11 f0       	breq	.+4      	; 0x36e6 <_ZN3Pin16initialisierePinEv+0x194>
			{DDRD &= ~(1 << DDD1);}
    36e2:	51 98       	cbi	0x0a, 1	; 10
    36e4:	08 95       	ret
			else
			{DDRD |= (1 << DDD1);}
    36e6:	51 9a       	sbi	0x0a, 1	; 10
    36e8:	08 95       	ret
			break;
			
			case 2:	if (private_Eingang == true)
    36ea:	12 96       	adiw	r26, 0x02	; 2
    36ec:	8c 91       	ld	r24, X
    36ee:	88 23       	and	r24, r24
    36f0:	11 f0       	breq	.+4      	; 0x36f6 <_ZN3Pin16initialisierePinEv+0x1a4>
			{DDRD &= ~(1 << DDD2);}
    36f2:	52 98       	cbi	0x0a, 2	; 10
    36f4:	08 95       	ret
			else
			{DDRD |= (1 << DDD2);}
    36f6:	52 9a       	sbi	0x0a, 2	; 10
    36f8:	08 95       	ret
			break;
			
			case 3:	if (private_Eingang == true)
    36fa:	12 96       	adiw	r26, 0x02	; 2
    36fc:	8c 91       	ld	r24, X
    36fe:	88 23       	and	r24, r24
    3700:	11 f0       	breq	.+4      	; 0x3706 <_ZN3Pin16initialisierePinEv+0x1b4>
			{DDRD &= ~(1 << DDD3);}
    3702:	53 98       	cbi	0x0a, 3	; 10
    3704:	08 95       	ret
			else
			{DDRD |= (1 << DDD3);}
    3706:	53 9a       	sbi	0x0a, 3	; 10
    3708:	08 95       	ret
			break;
			
			case 4:	if (private_Eingang == true)
    370a:	12 96       	adiw	r26, 0x02	; 2
    370c:	8c 91       	ld	r24, X
    370e:	88 23       	and	r24, r24
    3710:	11 f0       	breq	.+4      	; 0x3716 <_ZN3Pin16initialisierePinEv+0x1c4>
			{DDRD &= ~(1 << DDD4);}
    3712:	54 98       	cbi	0x0a, 4	; 10
    3714:	08 95       	ret
			else
			{DDRD |= (1 << DDD4);}
    3716:	54 9a       	sbi	0x0a, 4	; 10
    3718:	08 95       	ret
			break;
			
			case 5:	if (private_Eingang == true)
    371a:	12 96       	adiw	r26, 0x02	; 2
    371c:	8c 91       	ld	r24, X
    371e:	88 23       	and	r24, r24
    3720:	11 f0       	breq	.+4      	; 0x3726 <_ZN3Pin16initialisierePinEv+0x1d4>
			{DDRD &= ~(1 << DDD5);}
    3722:	55 98       	cbi	0x0a, 5	; 10
    3724:	08 95       	ret
			else
			{DDRD |= (1 << DDD5);}
    3726:	55 9a       	sbi	0x0a, 5	; 10
    3728:	08 95       	ret
			break;
			
			case 6:	if (private_Eingang == true)
    372a:	12 96       	adiw	r26, 0x02	; 2
    372c:	8c 91       	ld	r24, X
    372e:	88 23       	and	r24, r24
    3730:	11 f0       	breq	.+4      	; 0x3736 <_ZN3Pin16initialisierePinEv+0x1e4>
			{DDRD &= ~(1 << DDD6);}
    3732:	56 98       	cbi	0x0a, 6	; 10
    3734:	08 95       	ret
			else
			{DDRD |= (1 << DDD6);}
    3736:	56 9a       	sbi	0x0a, 6	; 10
    3738:	08 95       	ret
			break;
			
			case 7:	if (private_Eingang == true)
    373a:	12 96       	adiw	r26, 0x02	; 2
    373c:	8c 91       	ld	r24, X
    373e:	88 23       	and	r24, r24
    3740:	11 f0       	breq	.+4      	; 0x3746 <_ZN3Pin16initialisierePinEv+0x1f4>
			{DDRD &= ~(1 << DDD7);}
    3742:	57 98       	cbi	0x0a, 7	; 10
    3744:	08 95       	ret
			else
			{DDRD |= (1 << DDD7);}
    3746:	57 9a       	sbi	0x0a, 7	; 10
    3748:	08 95       	ret

0000374a <_ZN3PinC1Echb>:
	return private_Nummer_Pin;
}

void Pin::setze_Port(char PortBuchstabe)
{
	private_Port = PortBuchstabe;
    374a:	fc 01       	movw	r30, r24
    374c:	60 83       	st	Z, r22
}

void Pin::setze_PinNummer(uint8_t Pin_Nummer)
{
	private_Nummer_Pin = Pin_Nummer;
    374e:	41 83       	std	Z+1, r20	; 0x01
}

void Pin::setze_Richtung(bool is_Eingang)
{
	private_Eingang = is_Eingang;
    3750:	22 83       	std	Z+2, r18	; 0x02
{
	//ctor
	setze_Port(PublicPort);
	setze_PinNummer(Public_Nummer_Pin);
	setze_Richtung(Eingang);
	initialisierePin();  
    3752:	0e 94 a9 1a 	call	0x3552	; 0x3552 <_ZN3Pin16initialisierePinEv>
    3756:	08 95       	ret

00003758 <_ZN3Pin12setze_StatusEb>:


}

void Pin::setze_Status(bool Status)
{
    3758:	dc 01       	movw	r26, r24
    375a:	96 2f       	mov	r25, r22

		if (private_Port == 'B')
    375c:	8c 91       	ld	r24, X
    375e:	82 34       	cpi	r24, 0x42	; 66
    3760:	09 f0       	breq	.+2      	; 0x3764 <_ZN3Pin12setze_StatusEb+0xc>
    3762:	75 c0       	rjmp	.+234    	; 0x384e <_ZN3Pin12setze_StatusEb+0xf6>
		{
			switch(private_Nummer_Pin)
    3764:	11 96       	adiw	r26, 0x01	; 1
    3766:	ec 91       	ld	r30, X
    3768:	11 97       	sbiw	r26, 0x01	; 1
    376a:	4e 2f       	mov	r20, r30
    376c:	50 e0       	ldi	r21, 0x00	; 0
    376e:	48 30       	cpi	r20, 0x08	; 8
    3770:	51 05       	cpc	r21, r1
    3772:	08 f0       	brcs	.+2      	; 0x3776 <_ZN3Pin12setze_StatusEb+0x1e>
    3774:	6c c0       	rjmp	.+216    	; 0x384e <_ZN3Pin12setze_StatusEb+0xf6>
    3776:	fa 01       	movw	r30, r20
    3778:	e5 5b       	subi	r30, 0xB5	; 181
    377a:	ff 4f       	sbci	r31, 0xFF	; 255
    377c:	0c 94 48 1d 	jmp	0x3a90	; 0x3a90 <__tablejump2__>
			{
				case 0:	if (Status == true)
    3780:	99 23       	and	r25, r25
    3782:	31 f0       	breq	.+12     	; 0x3790 <_ZN3Pin12setze_StatusEb+0x38>
				{ PORTB |= (1<< PINB0);
    3784:	28 9a       	sbi	0x05, 0	; 5
	initialisierePin();  
}

void Pin::merke_status(bool status)
{
	status_intern = status;
    3786:	81 e0       	ldi	r24, 0x01	; 1
    3788:	13 96       	adiw	r26, 0x03	; 3
    378a:	8c 93       	st	X, r24
    378c:	13 97       	sbiw	r26, 0x03	; 3
    378e:	5f c0       	rjmp	.+190    	; 0x384e <_ZN3Pin12setze_StatusEb+0xf6>
			{
				case 0:	if (Status == true)
				{ PORTB |= (1<< PINB0);
					merke_status(true);}
				else
				{PORTB &= ~(1<<PINB0);
    3790:	28 98       	cbi	0x05, 0	; 5
	initialisierePin();  
}

void Pin::merke_status(bool status)
{
	status_intern = status;
    3792:	13 96       	adiw	r26, 0x03	; 3
    3794:	1c 92       	st	X, r1
    3796:	13 97       	sbiw	r26, 0x03	; 3
    3798:	5a c0       	rjmp	.+180    	; 0x384e <_ZN3Pin12setze_StatusEb+0xf6>
				else
				{PORTB &= ~(1<<PINB0);
					merke_status(false);}
				break;
				
				case 1:	if (Status == true)
    379a:	99 23       	and	r25, r25
    379c:	31 f0       	breq	.+12     	; 0x37aa <_ZN3Pin12setze_StatusEb+0x52>
				{ PORTB |= (1<< PINB1);
    379e:	29 9a       	sbi	0x05, 1	; 5
	initialisierePin();  
}

void Pin::merke_status(bool status)
{
	status_intern = status;
    37a0:	81 e0       	ldi	r24, 0x01	; 1
    37a2:	13 96       	adiw	r26, 0x03	; 3
    37a4:	8c 93       	st	X, r24
    37a6:	13 97       	sbiw	r26, 0x03	; 3
    37a8:	52 c0       	rjmp	.+164    	; 0x384e <_ZN3Pin12setze_StatusEb+0xf6>
				
				case 1:	if (Status == true)
				{ PORTB |= (1<< PINB1);
					merke_status(true);}
				else
				{PORTB &= ~(1<<PINB1);
    37aa:	29 98       	cbi	0x05, 1	; 5
	initialisierePin();  
}

void Pin::merke_status(bool status)
{
	status_intern = status;
    37ac:	13 96       	adiw	r26, 0x03	; 3
    37ae:	1c 92       	st	X, r1
    37b0:	13 97       	sbiw	r26, 0x03	; 3
    37b2:	4d c0       	rjmp	.+154    	; 0x384e <_ZN3Pin12setze_StatusEb+0xf6>
				else
				{PORTB &= ~(1<<PINB1);
					merke_status(false);}
				break;
				
				case 2:	if (Status == true)
    37b4:	99 23       	and	r25, r25
    37b6:	31 f0       	breq	.+12     	; 0x37c4 <_ZN3Pin12setze_StatusEb+0x6c>
				{ PORTB |= (1<< PINB2);
    37b8:	2a 9a       	sbi	0x05, 2	; 5
	initialisierePin();  
}

void Pin::merke_status(bool status)
{
	status_intern = status;
    37ba:	81 e0       	ldi	r24, 0x01	; 1
    37bc:	13 96       	adiw	r26, 0x03	; 3
    37be:	8c 93       	st	X, r24
    37c0:	13 97       	sbiw	r26, 0x03	; 3
    37c2:	45 c0       	rjmp	.+138    	; 0x384e <_ZN3Pin12setze_StatusEb+0xf6>
				
				case 2:	if (Status == true)
				{ PORTB |= (1<< PINB2);
					merke_status(true);}
				else
				{PORTB &= ~(1<<PINB2);
    37c4:	2a 98       	cbi	0x05, 2	; 5
	initialisierePin();  
}

void Pin::merke_status(bool status)
{
	status_intern = status;
    37c6:	13 96       	adiw	r26, 0x03	; 3
    37c8:	1c 92       	st	X, r1
    37ca:	13 97       	sbiw	r26, 0x03	; 3
    37cc:	40 c0       	rjmp	.+128    	; 0x384e <_ZN3Pin12setze_StatusEb+0xf6>
				else
				{PORTB &= ~(1<<PINB2);
					merke_status(false);}
				break;
				
				case 3:	if (Status == true)
    37ce:	99 23       	and	r25, r25
    37d0:	31 f0       	breq	.+12     	; 0x37de <_ZN3Pin12setze_StatusEb+0x86>
				{ PORTB |= (1<< PINB3);
    37d2:	2b 9a       	sbi	0x05, 3	; 5
	initialisierePin();  
}

void Pin::merke_status(bool status)
{
	status_intern = status;
    37d4:	81 e0       	ldi	r24, 0x01	; 1
    37d6:	13 96       	adiw	r26, 0x03	; 3
    37d8:	8c 93       	st	X, r24
    37da:	13 97       	sbiw	r26, 0x03	; 3
    37dc:	38 c0       	rjmp	.+112    	; 0x384e <_ZN3Pin12setze_StatusEb+0xf6>
				
				case 3:	if (Status == true)
				{ PORTB |= (1<< PINB3);
					merke_status(true);}
				else
				{PORTB &= ~(1<<PINB3);
    37de:	2b 98       	cbi	0x05, 3	; 5
	initialisierePin();  
}

void Pin::merke_status(bool status)
{
	status_intern = status;
    37e0:	13 96       	adiw	r26, 0x03	; 3
    37e2:	1c 92       	st	X, r1
    37e4:	13 97       	sbiw	r26, 0x03	; 3
    37e6:	33 c0       	rjmp	.+102    	; 0x384e <_ZN3Pin12setze_StatusEb+0xf6>
				else
				{PORTB &= ~(1<<PINB3);
					merke_status(false);}
				break;
				
				case 4:	if (Status == true)
    37e8:	99 23       	and	r25, r25
    37ea:	31 f0       	breq	.+12     	; 0x37f8 <_ZN3Pin12setze_StatusEb+0xa0>
				{ PORTB |= (1<< PINB4);
    37ec:	2c 9a       	sbi	0x05, 4	; 5
	initialisierePin();  
}

void Pin::merke_status(bool status)
{
	status_intern = status;
    37ee:	81 e0       	ldi	r24, 0x01	; 1
    37f0:	13 96       	adiw	r26, 0x03	; 3
    37f2:	8c 93       	st	X, r24
    37f4:	13 97       	sbiw	r26, 0x03	; 3
    37f6:	2b c0       	rjmp	.+86     	; 0x384e <_ZN3Pin12setze_StatusEb+0xf6>
				
				case 4:	if (Status == true)
				{ PORTB |= (1<< PINB4);
					merke_status(true);}
				else
				{PORTB &= ~(1<<PINB4);
    37f8:	2c 98       	cbi	0x05, 4	; 5
	initialisierePin();  
}

void Pin::merke_status(bool status)
{
	status_intern = status;
    37fa:	13 96       	adiw	r26, 0x03	; 3
    37fc:	1c 92       	st	X, r1
    37fe:	13 97       	sbiw	r26, 0x03	; 3
    3800:	26 c0       	rjmp	.+76     	; 0x384e <_ZN3Pin12setze_StatusEb+0xf6>
				else
				{PORTB &= ~(1<<PINB4);
					merke_status(false);}
				break;
				
				case 5:	if (Status == true)
    3802:	99 23       	and	r25, r25
    3804:	31 f0       	breq	.+12     	; 0x3812 <_ZN3Pin12setze_StatusEb+0xba>
				{ PORTB |= (1<< PINB5);
    3806:	2d 9a       	sbi	0x05, 5	; 5
	initialisierePin();  
}

void Pin::merke_status(bool status)
{
	status_intern = status;
    3808:	81 e0       	ldi	r24, 0x01	; 1
    380a:	13 96       	adiw	r26, 0x03	; 3
    380c:	8c 93       	st	X, r24
    380e:	13 97       	sbiw	r26, 0x03	; 3
    3810:	1e c0       	rjmp	.+60     	; 0x384e <_ZN3Pin12setze_StatusEb+0xf6>
				
				case 5:	if (Status == true)
				{ PORTB |= (1<< PINB5);
					merke_status(true);}
				else
				{PORTB &= ~(1<<PINB5);
    3812:	2d 98       	cbi	0x05, 5	; 5
	initialisierePin();  
}

void Pin::merke_status(bool status)
{
	status_intern = status;
    3814:	13 96       	adiw	r26, 0x03	; 3
    3816:	1c 92       	st	X, r1
    3818:	13 97       	sbiw	r26, 0x03	; 3
    381a:	19 c0       	rjmp	.+50     	; 0x384e <_ZN3Pin12setze_StatusEb+0xf6>
				else
				{PORTB &= ~(1<<PINB5);
					merke_status(false);}
				break;
				
				case 6:	if (Status == true)
    381c:	99 23       	and	r25, r25
    381e:	31 f0       	breq	.+12     	; 0x382c <_ZN3Pin12setze_StatusEb+0xd4>
				{ PORTB |= (1<< PINB6);
    3820:	2e 9a       	sbi	0x05, 6	; 5
	initialisierePin();  
}

void Pin::merke_status(bool status)
{
	status_intern = status;
    3822:	81 e0       	ldi	r24, 0x01	; 1
    3824:	13 96       	adiw	r26, 0x03	; 3
    3826:	8c 93       	st	X, r24
    3828:	13 97       	sbiw	r26, 0x03	; 3
    382a:	11 c0       	rjmp	.+34     	; 0x384e <_ZN3Pin12setze_StatusEb+0xf6>
				
				case 6:	if (Status == true)
				{ PORTB |= (1<< PINB6);
					merke_status(true);}
				else
				{PORTB &= ~(1<<PINB6);
    382c:	2e 98       	cbi	0x05, 6	; 5
	initialisierePin();  
}

void Pin::merke_status(bool status)
{
	status_intern = status;
    382e:	13 96       	adiw	r26, 0x03	; 3
    3830:	1c 92       	st	X, r1
    3832:	13 97       	sbiw	r26, 0x03	; 3
    3834:	0c c0       	rjmp	.+24     	; 0x384e <_ZN3Pin12setze_StatusEb+0xf6>
				else
				{PORTB &= ~(1<<PINB6);
					merke_status(false);}
				break;
				
				case 7:	if (Status == true)
    3836:	99 23       	and	r25, r25
    3838:	31 f0       	breq	.+12     	; 0x3846 <_ZN3Pin12setze_StatusEb+0xee>
				{ PORTB |= (1<< PINB7);
    383a:	2f 9a       	sbi	0x05, 7	; 5
	initialisierePin();  
}

void Pin::merke_status(bool status)
{
	status_intern = status;
    383c:	81 e0       	ldi	r24, 0x01	; 1
    383e:	13 96       	adiw	r26, 0x03	; 3
    3840:	8c 93       	st	X, r24
    3842:	13 97       	sbiw	r26, 0x03	; 3
    3844:	04 c0       	rjmp	.+8      	; 0x384e <_ZN3Pin12setze_StatusEb+0xf6>
				
				case 7:	if (Status == true)
				{ PORTB |= (1<< PINB7);
					merke_status(true);}
				else
				{PORTB &= ~(1<<PINB7);
    3846:	2f 98       	cbi	0x05, 7	; 5
	initialisierePin();  
}

void Pin::merke_status(bool status)
{
	status_intern = status;
    3848:	13 96       	adiw	r26, 0x03	; 3
    384a:	1c 92       	st	X, r1
    384c:	13 97       	sbiw	r26, 0x03	; 3
				break;
				
			}
		}

		if (private_Port == 'C')
    384e:	8c 91       	ld	r24, X
    3850:	83 34       	cpi	r24, 0x43	; 67
    3852:	09 f0       	breq	.+2      	; 0x3856 <_ZN3Pin12setze_StatusEb+0xfe>
    3854:	68 c0       	rjmp	.+208    	; 0x3926 <_ZN3Pin12setze_StatusEb+0x1ce>
		{
			switch(private_Nummer_Pin)
    3856:	11 96       	adiw	r26, 0x01	; 1
    3858:	ec 91       	ld	r30, X
    385a:	11 97       	sbiw	r26, 0x01	; 1
    385c:	4e 2f       	mov	r20, r30
    385e:	50 e0       	ldi	r21, 0x00	; 0
    3860:	47 30       	cpi	r20, 0x07	; 7
    3862:	51 05       	cpc	r21, r1
    3864:	08 f0       	brcs	.+2      	; 0x3868 <_ZN3Pin12setze_StatusEb+0x110>
    3866:	5f c0       	rjmp	.+190    	; 0x3926 <_ZN3Pin12setze_StatusEb+0x1ce>
    3868:	fa 01       	movw	r30, r20
    386a:	ed 5a       	subi	r30, 0xAD	; 173
    386c:	ff 4f       	sbci	r31, 0xFF	; 255
    386e:	0c 94 48 1d 	jmp	0x3a90	; 0x3a90 <__tablejump2__>
			{
				case 0:	if (Status == true)
    3872:	99 23       	and	r25, r25
    3874:	31 f0       	breq	.+12     	; 0x3882 <_ZN3Pin12setze_StatusEb+0x12a>
				{ PORTC |= (1<< PINC0);
    3876:	40 9a       	sbi	0x08, 0	; 8
	initialisierePin();  
}

void Pin::merke_status(bool status)
{
	status_intern = status;
    3878:	81 e0       	ldi	r24, 0x01	; 1
    387a:	13 96       	adiw	r26, 0x03	; 3
    387c:	8c 93       	st	X, r24
    387e:	13 97       	sbiw	r26, 0x03	; 3
    3880:	52 c0       	rjmp	.+164    	; 0x3926 <_ZN3Pin12setze_StatusEb+0x1ce>
			{
				case 0:	if (Status == true)
				{ PORTC |= (1<< PINC0);
					merke_status(true);}
				else
				{PORTC &= ~(1<<PINC0);
    3882:	40 98       	cbi	0x08, 0	; 8
	initialisierePin();  
}

void Pin::merke_status(bool status)
{
	status_intern = status;
    3884:	13 96       	adiw	r26, 0x03	; 3
    3886:	1c 92       	st	X, r1
    3888:	13 97       	sbiw	r26, 0x03	; 3
    388a:	4d c0       	rjmp	.+154    	; 0x3926 <_ZN3Pin12setze_StatusEb+0x1ce>
				else
				{PORTC &= ~(1<<PINC0);
					merke_status(false);}
				break;
				
				case 1:	if (Status == true)
    388c:	99 23       	and	r25, r25
    388e:	31 f0       	breq	.+12     	; 0x389c <_ZN3Pin12setze_StatusEb+0x144>
				{ PORTC |= (1<< PINC1);
    3890:	41 9a       	sbi	0x08, 1	; 8
	initialisierePin();  
}

void Pin::merke_status(bool status)
{
	status_intern = status;
    3892:	81 e0       	ldi	r24, 0x01	; 1
    3894:	13 96       	adiw	r26, 0x03	; 3
    3896:	8c 93       	st	X, r24
    3898:	13 97       	sbiw	r26, 0x03	; 3
    389a:	45 c0       	rjmp	.+138    	; 0x3926 <_ZN3Pin12setze_StatusEb+0x1ce>
				
				case 1:	if (Status == true)
				{ PORTC |= (1<< PINC1);
					merke_status(true);}
				else
				{PORTC &= ~(1<<PINC1);
    389c:	41 98       	cbi	0x08, 1	; 8
	initialisierePin();  
}

void Pin::merke_status(bool status)
{
	status_intern = status;
    389e:	13 96       	adiw	r26, 0x03	; 3
    38a0:	1c 92       	st	X, r1
    38a2:	13 97       	sbiw	r26, 0x03	; 3
    38a4:	40 c0       	rjmp	.+128    	; 0x3926 <_ZN3Pin12setze_StatusEb+0x1ce>
				else
				{PORTC &= ~(1<<PINC1);
					merke_status(false);}
				break;
				
				case 2:	if (Status == true)
    38a6:	99 23       	and	r25, r25
    38a8:	31 f0       	breq	.+12     	; 0x38b6 <_ZN3Pin12setze_StatusEb+0x15e>
				{ PORTC |= (1<< PINC2);
    38aa:	42 9a       	sbi	0x08, 2	; 8
	initialisierePin();  
}

void Pin::merke_status(bool status)
{
	status_intern = status;
    38ac:	81 e0       	ldi	r24, 0x01	; 1
    38ae:	13 96       	adiw	r26, 0x03	; 3
    38b0:	8c 93       	st	X, r24
    38b2:	13 97       	sbiw	r26, 0x03	; 3
    38b4:	38 c0       	rjmp	.+112    	; 0x3926 <_ZN3Pin12setze_StatusEb+0x1ce>
				
				case 2:	if (Status == true)
				{ PORTC |= (1<< PINC2);
					merke_status(true);}
				else
				{PORTC &= ~(1<<PINC2);
    38b6:	42 98       	cbi	0x08, 2	; 8
	initialisierePin();  
}

void Pin::merke_status(bool status)
{
	status_intern = status;
    38b8:	13 96       	adiw	r26, 0x03	; 3
    38ba:	1c 92       	st	X, r1
    38bc:	13 97       	sbiw	r26, 0x03	; 3
    38be:	33 c0       	rjmp	.+102    	; 0x3926 <_ZN3Pin12setze_StatusEb+0x1ce>
				else
				{PORTC &= ~(1<<PINC2);
					merke_status(false);}
				break;
				
				case 3:	if (Status == true)
    38c0:	99 23       	and	r25, r25
    38c2:	31 f0       	breq	.+12     	; 0x38d0 <_ZN3Pin12setze_StatusEb+0x178>
				{ PORTC |= (1<< PINC3);
    38c4:	43 9a       	sbi	0x08, 3	; 8
	initialisierePin();  
}

void Pin::merke_status(bool status)
{
	status_intern = status;
    38c6:	81 e0       	ldi	r24, 0x01	; 1
    38c8:	13 96       	adiw	r26, 0x03	; 3
    38ca:	8c 93       	st	X, r24
    38cc:	13 97       	sbiw	r26, 0x03	; 3
    38ce:	2b c0       	rjmp	.+86     	; 0x3926 <_ZN3Pin12setze_StatusEb+0x1ce>
				
				case 3:	if (Status == true)
				{ PORTC |= (1<< PINC3);
					merke_status(true);}
				else
				{PORTC &= ~(1<<PINC3);
    38d0:	43 98       	cbi	0x08, 3	; 8
	initialisierePin();  
}

void Pin::merke_status(bool status)
{
	status_intern = status;
    38d2:	13 96       	adiw	r26, 0x03	; 3
    38d4:	1c 92       	st	X, r1
    38d6:	13 97       	sbiw	r26, 0x03	; 3
    38d8:	26 c0       	rjmp	.+76     	; 0x3926 <_ZN3Pin12setze_StatusEb+0x1ce>
				else
				{PORTC &= ~(1<<PINC3);
					merke_status(false);}
				break;
				
				case 4:	if (Status == true)
    38da:	99 23       	and	r25, r25
    38dc:	31 f0       	breq	.+12     	; 0x38ea <_ZN3Pin12setze_StatusEb+0x192>
				{ PORTC |= (1<< PINC4);
    38de:	44 9a       	sbi	0x08, 4	; 8
	initialisierePin();  
}

void Pin::merke_status(bool status)
{
	status_intern = status;
    38e0:	81 e0       	ldi	r24, 0x01	; 1
    38e2:	13 96       	adiw	r26, 0x03	; 3
    38e4:	8c 93       	st	X, r24
    38e6:	13 97       	sbiw	r26, 0x03	; 3
    38e8:	1e c0       	rjmp	.+60     	; 0x3926 <_ZN3Pin12setze_StatusEb+0x1ce>
				
				case 4:	if (Status == true)
				{ PORTC |= (1<< PINC4);
					merke_status(true);}
				else
				{PORTC &= ~(1<<PINC4);
    38ea:	44 98       	cbi	0x08, 4	; 8
	initialisierePin();  
}

void Pin::merke_status(bool status)
{
	status_intern = status;
    38ec:	13 96       	adiw	r26, 0x03	; 3
    38ee:	1c 92       	st	X, r1
    38f0:	13 97       	sbiw	r26, 0x03	; 3
    38f2:	19 c0       	rjmp	.+50     	; 0x3926 <_ZN3Pin12setze_StatusEb+0x1ce>
				else
				{PORTC &= ~(1<<PINC4);
					merke_status(false);}
				break;
				
				case 5:	if (Status == true)
    38f4:	99 23       	and	r25, r25
    38f6:	31 f0       	breq	.+12     	; 0x3904 <_ZN3Pin12setze_StatusEb+0x1ac>
				{ PORTC |= (1<< PINC5);
    38f8:	45 9a       	sbi	0x08, 5	; 8
	initialisierePin();  
}

void Pin::merke_status(bool status)
{
	status_intern = status;
    38fa:	81 e0       	ldi	r24, 0x01	; 1
    38fc:	13 96       	adiw	r26, 0x03	; 3
    38fe:	8c 93       	st	X, r24
    3900:	13 97       	sbiw	r26, 0x03	; 3
    3902:	11 c0       	rjmp	.+34     	; 0x3926 <_ZN3Pin12setze_StatusEb+0x1ce>
				
				case 5:	if (Status == true)
				{ PORTC |= (1<< PINC5);
					merke_status(true);}
				else
				{PORTC &= ~(1<<PINC5);
    3904:	45 98       	cbi	0x08, 5	; 8
	initialisierePin();  
}

void Pin::merke_status(bool status)
{
	status_intern = status;
    3906:	13 96       	adiw	r26, 0x03	; 3
    3908:	1c 92       	st	X, r1
    390a:	13 97       	sbiw	r26, 0x03	; 3
    390c:	0c c0       	rjmp	.+24     	; 0x3926 <_ZN3Pin12setze_StatusEb+0x1ce>
				else
				{PORTC &= ~(1<<PINC5);
					merke_status(false);}
				break;
				
				case 6:	if (Status == true)
    390e:	99 23       	and	r25, r25
    3910:	31 f0       	breq	.+12     	; 0x391e <_ZN3Pin12setze_StatusEb+0x1c6>
				{ PORTC |= (1<< PINC6);
    3912:	46 9a       	sbi	0x08, 6	; 8
	initialisierePin();  
}

void Pin::merke_status(bool status)
{
	status_intern = status;
    3914:	81 e0       	ldi	r24, 0x01	; 1
    3916:	13 96       	adiw	r26, 0x03	; 3
    3918:	8c 93       	st	X, r24
    391a:	13 97       	sbiw	r26, 0x03	; 3
    391c:	04 c0       	rjmp	.+8      	; 0x3926 <_ZN3Pin12setze_StatusEb+0x1ce>
				
				case 6:	if (Status == true)
				{ PORTC |= (1<< PINC6);
					merke_status(true);}
				else
				{PORTC &= ~(1<<PINC6);
    391e:	46 98       	cbi	0x08, 6	; 8
	initialisierePin();  
}

void Pin::merke_status(bool status)
{
	status_intern = status;
    3920:	13 96       	adiw	r26, 0x03	; 3
    3922:	1c 92       	st	X, r1
    3924:	13 97       	sbiw	r26, 0x03	; 3
				default: //# warning "The choosen pin number is not valid. Only 0-6 are allowed on Port C"
				break;
							}
		}
		
		if (private_Port == 'D')
    3926:	8c 91       	ld	r24, X
    3928:	84 34       	cpi	r24, 0x44	; 68
    392a:	09 f0       	breq	.+2      	; 0x392e <_ZN3Pin12setze_StatusEb+0x1d6>
    392c:	65 c0       	rjmp	.+202    	; 0x39f8 <_ZN3Pin12setze_StatusEb+0x2a0>
		{
			switch(private_Nummer_Pin)
    392e:	11 96       	adiw	r26, 0x01	; 1
    3930:	ec 91       	ld	r30, X
    3932:	11 97       	sbiw	r26, 0x01	; 1
    3934:	4e 2f       	mov	r20, r30
    3936:	50 e0       	ldi	r21, 0x00	; 0
    3938:	48 30       	cpi	r20, 0x08	; 8
    393a:	51 05       	cpc	r21, r1
    393c:	08 f0       	brcs	.+2      	; 0x3940 <_ZN3Pin12setze_StatusEb+0x1e8>
    393e:	5c c0       	rjmp	.+184    	; 0x39f8 <_ZN3Pin12setze_StatusEb+0x2a0>
    3940:	fa 01       	movw	r30, r20
    3942:	e6 5a       	subi	r30, 0xA6	; 166
    3944:	ff 4f       	sbci	r31, 0xFF	; 255
    3946:	0c 94 48 1d 	jmp	0x3a90	; 0x3a90 <__tablejump2__>
			{
				case 0:	if (Status == true)
    394a:	99 23       	and	r25, r25
    394c:	29 f0       	breq	.+10     	; 0x3958 <_ZN3Pin12setze_StatusEb+0x200>
				{ PORTD |= (1<< PIND0);
    394e:	58 9a       	sbi	0x0b, 0	; 11
	initialisierePin();  
}

void Pin::merke_status(bool status)
{
	status_intern = status;
    3950:	81 e0       	ldi	r24, 0x01	; 1
    3952:	13 96       	adiw	r26, 0x03	; 3
    3954:	8c 93       	st	X, r24
    3956:	08 95       	ret
			{
				case 0:	if (Status == true)
				{ PORTD |= (1<< PIND0);
					merke_status(true);}
				else
				{PORTD &= ~(1<<PIND0);
    3958:	58 98       	cbi	0x0b, 0	; 11
	initialisierePin();  
}

void Pin::merke_status(bool status)
{
	status_intern = status;
    395a:	13 96       	adiw	r26, 0x03	; 3
    395c:	1c 92       	st	X, r1
    395e:	08 95       	ret
				else
				{PORTD &= ~(1<<PIND0);
					merke_status(false);}
				break;
				
				case 1:	if (Status == true)
    3960:	99 23       	and	r25, r25
    3962:	29 f0       	breq	.+10     	; 0x396e <_ZN3Pin12setze_StatusEb+0x216>
				{ PORTD |= (1<< PIND1);
    3964:	59 9a       	sbi	0x0b, 1	; 11
	initialisierePin();  
}

void Pin::merke_status(bool status)
{
	status_intern = status;
    3966:	81 e0       	ldi	r24, 0x01	; 1
    3968:	13 96       	adiw	r26, 0x03	; 3
    396a:	8c 93       	st	X, r24
    396c:	08 95       	ret
				
				case 1:	if (Status == true)
				{ PORTD |= (1<< PIND1);
					merke_status(true);}
				else
				{PORTD &= ~(1<<PIND1);
    396e:	59 98       	cbi	0x0b, 1	; 11
	initialisierePin();  
}

void Pin::merke_status(bool status)
{
	status_intern = status;
    3970:	13 96       	adiw	r26, 0x03	; 3
    3972:	1c 92       	st	X, r1
    3974:	08 95       	ret
				else
				{PORTD &= ~(1<<PIND1);
					merke_status(false);}
				break;
				
				case 2:	if (Status == true)
    3976:	99 23       	and	r25, r25
    3978:	29 f0       	breq	.+10     	; 0x3984 <_ZN3Pin12setze_StatusEb+0x22c>
				{ PORTD |= (1<< PIND2);
    397a:	5a 9a       	sbi	0x0b, 2	; 11
	initialisierePin();  
}

void Pin::merke_status(bool status)
{
	status_intern = status;
    397c:	81 e0       	ldi	r24, 0x01	; 1
    397e:	13 96       	adiw	r26, 0x03	; 3
    3980:	8c 93       	st	X, r24
    3982:	08 95       	ret
				
				case 2:	if (Status == true)
				{ PORTD |= (1<< PIND2);
					merke_status(true);}
				else
				{PORTD &= ~(1<<PIND2);
    3984:	5a 98       	cbi	0x0b, 2	; 11
	initialisierePin();  
}

void Pin::merke_status(bool status)
{
	status_intern = status;
    3986:	13 96       	adiw	r26, 0x03	; 3
    3988:	1c 92       	st	X, r1
    398a:	08 95       	ret
				else
				{PORTD &= ~(1<<PIND2);
					merke_status(false);}
				break;
				
				case 3:	if (Status == true)
    398c:	99 23       	and	r25, r25
    398e:	29 f0       	breq	.+10     	; 0x399a <_ZN3Pin12setze_StatusEb+0x242>
				{ PORTD |= (1<< PIND3);
    3990:	5b 9a       	sbi	0x0b, 3	; 11
	initialisierePin();  
}

void Pin::merke_status(bool status)
{
	status_intern = status;
    3992:	81 e0       	ldi	r24, 0x01	; 1
    3994:	13 96       	adiw	r26, 0x03	; 3
    3996:	8c 93       	st	X, r24
    3998:	08 95       	ret
				
				case 3:	if (Status == true)
				{ PORTD |= (1<< PIND3);
					merke_status(true);}
				else
				{PORTD &= ~(1<<PIND3);
    399a:	5b 98       	cbi	0x0b, 3	; 11
	initialisierePin();  
}

void Pin::merke_status(bool status)
{
	status_intern = status;
    399c:	13 96       	adiw	r26, 0x03	; 3
    399e:	1c 92       	st	X, r1
    39a0:	08 95       	ret
				else
				{PORTD &= ~(1<<PIND3);
					merke_status(false);}
				break;
				
				case 4:	if (Status == true)
    39a2:	99 23       	and	r25, r25
    39a4:	29 f0       	breq	.+10     	; 0x39b0 <_ZN3Pin12setze_StatusEb+0x258>
				{ PORTD |= (1<< PIND4);
    39a6:	5c 9a       	sbi	0x0b, 4	; 11
	initialisierePin();  
}

void Pin::merke_status(bool status)
{
	status_intern = status;
    39a8:	81 e0       	ldi	r24, 0x01	; 1
    39aa:	13 96       	adiw	r26, 0x03	; 3
    39ac:	8c 93       	st	X, r24
    39ae:	08 95       	ret
				
				case 4:	if (Status == true)
				{ PORTD |= (1<< PIND4);
					merke_status(true);}
				else
				{PORTD &= ~(1<<PIND4);
    39b0:	5c 98       	cbi	0x0b, 4	; 11
	initialisierePin();  
}

void Pin::merke_status(bool status)
{
	status_intern = status;
    39b2:	13 96       	adiw	r26, 0x03	; 3
    39b4:	1c 92       	st	X, r1
    39b6:	08 95       	ret
				else
				{PORTD &= ~(1<<PIND4);
					merke_status(false);}
				break;
				
				case 5:	if (Status == true)
    39b8:	99 23       	and	r25, r25
    39ba:	29 f0       	breq	.+10     	; 0x39c6 <_ZN3Pin12setze_StatusEb+0x26e>
				{ PORTD |= (1<< PIND5);
    39bc:	5d 9a       	sbi	0x0b, 5	; 11
	initialisierePin();  
}

void Pin::merke_status(bool status)
{
	status_intern = status;
    39be:	81 e0       	ldi	r24, 0x01	; 1
    39c0:	13 96       	adiw	r26, 0x03	; 3
    39c2:	8c 93       	st	X, r24
    39c4:	08 95       	ret
				
				case 5:	if (Status == true)
				{ PORTD |= (1<< PIND5);
					merke_status(true);}
				else
				{PORTD &= ~(1<<PIND5);
    39c6:	5d 98       	cbi	0x0b, 5	; 11
	initialisierePin();  
}

void Pin::merke_status(bool status)
{
	status_intern = status;
    39c8:	13 96       	adiw	r26, 0x03	; 3
    39ca:	1c 92       	st	X, r1
    39cc:	08 95       	ret
				else
				{PORTD &= ~(1<<PIND5);
					merke_status(false);}
				break;
				
				case 6:	if (Status == true)
    39ce:	99 23       	and	r25, r25
    39d0:	29 f0       	breq	.+10     	; 0x39dc <_ZN3Pin12setze_StatusEb+0x284>
				{ PORTD |= (1<< PIND6);
    39d2:	5e 9a       	sbi	0x0b, 6	; 11
	initialisierePin();  
}

void Pin::merke_status(bool status)
{
	status_intern = status;
    39d4:	81 e0       	ldi	r24, 0x01	; 1
    39d6:	13 96       	adiw	r26, 0x03	; 3
    39d8:	8c 93       	st	X, r24
    39da:	08 95       	ret
				
				case 6:	if (Status == true)
				{ PORTD |= (1<< PIND6);
					merke_status(true);}
				else
				{PORTD &= ~(1<<PIND6);
    39dc:	5e 98       	cbi	0x0b, 6	; 11
	initialisierePin();  
}

void Pin::merke_status(bool status)
{
	status_intern = status;
    39de:	13 96       	adiw	r26, 0x03	; 3
    39e0:	1c 92       	st	X, r1
    39e2:	08 95       	ret
				else
				{PORTD &= ~(1<<PIND6);
					merke_status(false);}
				break;
				
				case 7:	if (Status == true)
    39e4:	99 23       	and	r25, r25
    39e6:	29 f0       	breq	.+10     	; 0x39f2 <_ZN3Pin12setze_StatusEb+0x29a>
				{ PORTD |= (1<< PIND7);
    39e8:	5f 9a       	sbi	0x0b, 7	; 11
	initialisierePin();  
}

void Pin::merke_status(bool status)
{
	status_intern = status;
    39ea:	81 e0       	ldi	r24, 0x01	; 1
    39ec:	13 96       	adiw	r26, 0x03	; 3
    39ee:	8c 93       	st	X, r24
    39f0:	08 95       	ret
				
				case 7:	if (Status == true)
				{ PORTD |= (1<< PIND7);
					merke_status(true);}
				else
				{PORTD &= ~(1<<PIND7);
    39f2:	5f 98       	cbi	0x0b, 7	; 11
	initialisierePin();  
}

void Pin::merke_status(bool status)
{
	status_intern = status;
    39f4:	13 96       	adiw	r26, 0x03	; 3
    39f6:	1c 92       	st	X, r1
    39f8:	08 95       	ret

000039fa <_Z15spi_init_masterv>:

// Initialize SPI Master Device (with SPI interrupt)
void spi_init_master (void)
{
	// Set MOSI, SCK and CS (SS) as Output Defining CS (SS) as an Output is NOT Optional when Chip should run in Master mode!!!!!
	DDRB=(1<<5)|(1<<3)|(1<<2);
    39fa:	8c e2       	ldi	r24, 0x2C	; 44
    39fc:	84 b9       	out	0x04, r24	; 4
	
	// Enable SPI, Set as Master
	// Changed to Fosc/2 12.11.2018
	// Prescaler: Fosc/2, Enable Interrupts
	//The MOSI, SCK pins are as per ATMega8
	SPCR=(1<<SPE)|(1<<MSTR)|(1<<SPR0);
    39fe:	81 e5       	ldi	r24, 0x51	; 81
    3a00:	8c bd       	out	0x2c, r24	; 44
	// Enable Global Interrupts
	sei();
    3a02:	78 94       	sei
    3a04:	08 95       	ret

00003a06 <_Z9uart_initj>:
{
	/* Wait for data to be received */
	while ( !(UCSR0A & (1<<RXC0)) );
	/* Get and return received data from buffer */
	return UDR0;                                 // return 8-bit data
}
    3a06:	90 93 c5 00 	sts	0x00C5, r25	; 0x8000c5 <__TEXT_REGION_LENGTH__+0x7e00c5>
    3a0a:	80 93 c4 00 	sts	0x00C4, r24	; 0x8000c4 <__TEXT_REGION_LENGTH__+0x7e00c4>
    3a0e:	88 e1       	ldi	r24, 0x18	; 24
    3a10:	80 93 c1 00 	sts	0x00C1, r24	; 0x8000c1 <__TEXT_REGION_LENGTH__+0x7e00c1>
    3a14:	86 e0       	ldi	r24, 0x06	; 6
    3a16:	80 93 c2 00 	sts	0x00C2, r24	; 0x8000c2 <__TEXT_REGION_LENGTH__+0x7e00c2>
    3a1a:	08 95       	ret

00003a1c <_Z13uart_transmitc>:
    3a1c:	e0 ec       	ldi	r30, 0xC0	; 192
    3a1e:	f0 e0       	ldi	r31, 0x00	; 0
    3a20:	90 81       	ld	r25, Z
    3a22:	95 ff       	sbrs	r25, 5
    3a24:	fd cf       	rjmp	.-6      	; 0x3a20 <_Z13uart_transmitc+0x4>
    3a26:	80 93 c6 00 	sts	0x00C6, r24	; 0x8000c6 <__TEXT_REGION_LENGTH__+0x7e00c6>
    3a2a:	08 95       	ret

00003a2c <_Z20uart_transmit_stringPc>:

void uart_transmit_string(char *transmitString)
{
    3a2c:	df 92       	push	r13
    3a2e:	ef 92       	push	r14
    3a30:	ff 92       	push	r15
    3a32:	0f 93       	push	r16
    3a34:	1f 93       	push	r17
    3a36:	cf 93       	push	r28
    3a38:	df 93       	push	r29
    3a3a:	1f 92       	push	r1
    3a3c:	cd b7       	in	r28, 0x3d	; 61
    3a3e:	de b7       	in	r29, 0x3e	; 62
    3a40:	7c 01       	movw	r14, r24
	volatile bool EndOfString = false;
    3a42:	19 82       	std	Y+1, r1	; 0x01
	int i = 0;
    3a44:	00 e0       	ldi	r16, 0x00	; 0
    3a46:	10 e0       	ldi	r17, 0x00	; 0
			uart_transmit(transmitString[i]);
			i++;
		}
		else
		{
			EndOfString = true;
    3a48:	dd 24       	eor	r13, r13
    3a4a:	d3 94       	inc	r13
    3a4c:	03 c0       	rjmp	.+6      	; 0x3a54 <_Z20uart_transmit_stringPc+0x28>

void uart_transmit_string(char *transmitString)
{
	volatile bool EndOfString = false;
	int i = 0;
	while ((i<max_transmit_lenght) && !(EndOfString))
    3a4e:	04 36       	cpi	r16, 0x64	; 100
    3a50:	11 05       	cpc	r17, r1
    3a52:	ac f4       	brge	.+42     	; 0x3a7e <_Z20uart_transmit_stringPc+0x52>
    3a54:	89 81       	ldd	r24, Y+1	; 0x01
    3a56:	81 11       	cpse	r24, r1
    3a58:	12 c0       	rjmp	.+36     	; 0x3a7e <_Z20uart_transmit_stringPc+0x52>
    3a5a:	0a c0       	rjmp	.+20     	; 0x3a70 <_Z20uart_transmit_stringPc+0x44>
	{
		if (transmitString[i] != '\n')
		{
			uart_transmit(transmitString[i]);
    3a5c:	0e 94 0e 1d 	call	0x3a1c	; 0x3a1c <_Z13uart_transmitc>
			i++;
    3a60:	0f 5f       	subi	r16, 0xFF	; 255
    3a62:	1f 4f       	sbci	r17, 0xFF	; 255
    3a64:	f4 cf       	rjmp	.-24     	; 0x3a4e <_Z20uart_transmit_stringPc+0x22>
		}
		else
		{
			EndOfString = true;
    3a66:	d9 82       	std	Y+1, r13	; 0x01
			uart_transmit('\n');
    3a68:	8a e0       	ldi	r24, 0x0A	; 10
    3a6a:	0e 94 0e 1d 	call	0x3a1c	; 0x3a1c <_Z13uart_transmitc>
    3a6e:	ef cf       	rjmp	.-34     	; 0x3a4e <_Z20uart_transmit_stringPc+0x22>
{
	volatile bool EndOfString = false;
	int i = 0;
	while ((i<max_transmit_lenght) && !(EndOfString))
	{
		if (transmitString[i] != '\n')
    3a70:	f7 01       	movw	r30, r14
    3a72:	e0 0f       	add	r30, r16
    3a74:	f1 1f       	adc	r31, r17
    3a76:	80 81       	ld	r24, Z
    3a78:	8a 30       	cpi	r24, 0x0A	; 10
    3a7a:	81 f7       	brne	.-32     	; 0x3a5c <_Z20uart_transmit_stringPc+0x30>
    3a7c:	f4 cf       	rjmp	.-24     	; 0x3a66 <_Z20uart_transmit_stringPc+0x3a>
		{
			EndOfString = true;
			uart_transmit('\n');
		}
	}
}
    3a7e:	0f 90       	pop	r0
    3a80:	df 91       	pop	r29
    3a82:	cf 91       	pop	r28
    3a84:	1f 91       	pop	r17
    3a86:	0f 91       	pop	r16
    3a88:	ff 90       	pop	r15
    3a8a:	ef 90       	pop	r14
    3a8c:	df 90       	pop	r13
    3a8e:	08 95       	ret

00003a90 <__tablejump2__>:
    3a90:	ee 0f       	add	r30, r30
    3a92:	ff 1f       	adc	r31, r31
    3a94:	05 90       	lpm	r0, Z+
    3a96:	f4 91       	lpm	r31, Z
    3a98:	e0 2d       	mov	r30, r0
    3a9a:	09 94       	ijmp

00003a9c <memcpy>:
    3a9c:	fb 01       	movw	r30, r22
    3a9e:	dc 01       	movw	r26, r24
    3aa0:	02 c0       	rjmp	.+4      	; 0x3aa6 <memcpy+0xa>
    3aa2:	01 90       	ld	r0, Z+
    3aa4:	0d 92       	st	X+, r0
    3aa6:	41 50       	subi	r20, 0x01	; 1
    3aa8:	50 40       	sbci	r21, 0x00	; 0
    3aaa:	d8 f7       	brcc	.-10     	; 0x3aa2 <memcpy+0x6>
    3aac:	08 95       	ret

00003aae <strncmp>:
    3aae:	fb 01       	movw	r30, r22
    3ab0:	dc 01       	movw	r26, r24
    3ab2:	41 50       	subi	r20, 0x01	; 1
    3ab4:	50 40       	sbci	r21, 0x00	; 0
    3ab6:	30 f0       	brcs	.+12     	; 0x3ac4 <strncmp+0x16>
    3ab8:	8d 91       	ld	r24, X+
    3aba:	01 90       	ld	r0, Z+
    3abc:	80 19       	sub	r24, r0
    3abe:	19 f4       	brne	.+6      	; 0x3ac6 <strncmp+0x18>
    3ac0:	00 20       	and	r0, r0
    3ac2:	b9 f7       	brne	.-18     	; 0x3ab2 <strncmp+0x4>
    3ac4:	88 1b       	sub	r24, r24
    3ac6:	99 0b       	sbc	r25, r25
    3ac8:	08 95       	ret

00003aca <__itoa_ncheck>:
    3aca:	bb 27       	eor	r27, r27
    3acc:	4a 30       	cpi	r20, 0x0A	; 10
    3ace:	31 f4       	brne	.+12     	; 0x3adc <__itoa_ncheck+0x12>
    3ad0:	99 23       	and	r25, r25
    3ad2:	22 f4       	brpl	.+8      	; 0x3adc <__itoa_ncheck+0x12>
    3ad4:	bd e2       	ldi	r27, 0x2D	; 45
    3ad6:	90 95       	com	r25
    3ad8:	81 95       	neg	r24
    3ada:	9f 4f       	sbci	r25, 0xFF	; 255
    3adc:	0c 94 71 1d 	jmp	0x3ae2	; 0x3ae2 <__utoa_common>

00003ae0 <__utoa_ncheck>:
    3ae0:	bb 27       	eor	r27, r27

00003ae2 <__utoa_common>:
    3ae2:	fb 01       	movw	r30, r22
    3ae4:	55 27       	eor	r21, r21
    3ae6:	aa 27       	eor	r26, r26
    3ae8:	88 0f       	add	r24, r24
    3aea:	99 1f       	adc	r25, r25
    3aec:	aa 1f       	adc	r26, r26
    3aee:	a4 17       	cp	r26, r20
    3af0:	10 f0       	brcs	.+4      	; 0x3af6 <__utoa_common+0x14>
    3af2:	a4 1b       	sub	r26, r20
    3af4:	83 95       	inc	r24
    3af6:	50 51       	subi	r21, 0x10	; 16
    3af8:	b9 f7       	brne	.-18     	; 0x3ae8 <__utoa_common+0x6>
    3afa:	a0 5d       	subi	r26, 0xD0	; 208
    3afc:	aa 33       	cpi	r26, 0x3A	; 58
    3afe:	08 f0       	brcs	.+2      	; 0x3b02 <__utoa_common+0x20>
    3b00:	a9 5d       	subi	r26, 0xD9	; 217
    3b02:	a1 93       	st	Z+, r26
    3b04:	00 97       	sbiw	r24, 0x00	; 0
    3b06:	79 f7       	brne	.-34     	; 0x3ae6 <__utoa_common+0x4>
    3b08:	b1 11       	cpse	r27, r1
    3b0a:	b1 93       	st	Z+, r27
    3b0c:	11 92       	st	Z+, r1
    3b0e:	cb 01       	movw	r24, r22
    3b10:	0c 94 a3 1f 	jmp	0x3f46	; 0x3f46 <strrev>

00003b14 <sprintf>:
    3b14:	ae e0       	ldi	r26, 0x0E	; 14
    3b16:	b0 e0       	ldi	r27, 0x00	; 0
    3b18:	e0 e9       	ldi	r30, 0x90	; 144
    3b1a:	fd e1       	ldi	r31, 0x1D	; 29
    3b1c:	0c 94 5b 20 	jmp	0x40b6	; 0x40b6 <__prologue_saves__+0x1c>
    3b20:	0d 89       	ldd	r16, Y+21	; 0x15
    3b22:	1e 89       	ldd	r17, Y+22	; 0x16
    3b24:	86 e0       	ldi	r24, 0x06	; 6
    3b26:	8c 83       	std	Y+4, r24	; 0x04
    3b28:	1a 83       	std	Y+2, r17	; 0x02
    3b2a:	09 83       	std	Y+1, r16	; 0x01
    3b2c:	8f ef       	ldi	r24, 0xFF	; 255
    3b2e:	9f e7       	ldi	r25, 0x7F	; 127
    3b30:	9e 83       	std	Y+6, r25	; 0x06
    3b32:	8d 83       	std	Y+5, r24	; 0x05
    3b34:	ae 01       	movw	r20, r28
    3b36:	47 5e       	subi	r20, 0xE7	; 231
    3b38:	5f 4f       	sbci	r21, 0xFF	; 255
    3b3a:	6f 89       	ldd	r22, Y+23	; 0x17
    3b3c:	78 8d       	ldd	r23, Y+24	; 0x18
    3b3e:	ce 01       	movw	r24, r28
    3b40:	01 96       	adiw	r24, 0x01	; 1
    3b42:	0e 94 ac 1d 	call	0x3b58	; 0x3b58 <vfprintf>
    3b46:	ef 81       	ldd	r30, Y+7	; 0x07
    3b48:	f8 85       	ldd	r31, Y+8	; 0x08
    3b4a:	e0 0f       	add	r30, r16
    3b4c:	f1 1f       	adc	r31, r17
    3b4e:	10 82       	st	Z, r1
    3b50:	2e 96       	adiw	r28, 0x0e	; 14
    3b52:	e4 e0       	ldi	r30, 0x04	; 4
    3b54:	0c 94 77 20 	jmp	0x40ee	; 0x40ee <__epilogue_restores__+0x1c>

00003b58 <vfprintf>:
    3b58:	ab e0       	ldi	r26, 0x0B	; 11
    3b5a:	b0 e0       	ldi	r27, 0x00	; 0
    3b5c:	e2 eb       	ldi	r30, 0xB2	; 178
    3b5e:	fd e1       	ldi	r31, 0x1D	; 29
    3b60:	0c 94 4d 20 	jmp	0x409a	; 0x409a <__prologue_saves__>
    3b64:	6c 01       	movw	r12, r24
    3b66:	7b 01       	movw	r14, r22
    3b68:	8a 01       	movw	r16, r20
    3b6a:	fc 01       	movw	r30, r24
    3b6c:	17 82       	std	Z+7, r1	; 0x07
    3b6e:	16 82       	std	Z+6, r1	; 0x06
    3b70:	83 81       	ldd	r24, Z+3	; 0x03
    3b72:	81 ff       	sbrs	r24, 1
    3b74:	cc c1       	rjmp	.+920    	; 0x3f0e <vfprintf+0x3b6>
    3b76:	ce 01       	movw	r24, r28
    3b78:	01 96       	adiw	r24, 0x01	; 1
    3b7a:	3c 01       	movw	r6, r24
    3b7c:	f6 01       	movw	r30, r12
    3b7e:	93 81       	ldd	r25, Z+3	; 0x03
    3b80:	f7 01       	movw	r30, r14
    3b82:	93 fd       	sbrc	r25, 3
    3b84:	85 91       	lpm	r24, Z+
    3b86:	93 ff       	sbrs	r25, 3
    3b88:	81 91       	ld	r24, Z+
    3b8a:	7f 01       	movw	r14, r30
    3b8c:	88 23       	and	r24, r24
    3b8e:	09 f4       	brne	.+2      	; 0x3b92 <vfprintf+0x3a>
    3b90:	ba c1       	rjmp	.+884    	; 0x3f06 <vfprintf+0x3ae>
    3b92:	85 32       	cpi	r24, 0x25	; 37
    3b94:	39 f4       	brne	.+14     	; 0x3ba4 <vfprintf+0x4c>
    3b96:	93 fd       	sbrc	r25, 3
    3b98:	85 91       	lpm	r24, Z+
    3b9a:	93 ff       	sbrs	r25, 3
    3b9c:	81 91       	ld	r24, Z+
    3b9e:	7f 01       	movw	r14, r30
    3ba0:	85 32       	cpi	r24, 0x25	; 37
    3ba2:	29 f4       	brne	.+10     	; 0x3bae <vfprintf+0x56>
    3ba4:	b6 01       	movw	r22, r12
    3ba6:	90 e0       	ldi	r25, 0x00	; 0
    3ba8:	0e 94 b3 1f 	call	0x3f66	; 0x3f66 <fputc>
    3bac:	e7 cf       	rjmp	.-50     	; 0x3b7c <vfprintf+0x24>
    3bae:	91 2c       	mov	r9, r1
    3bb0:	21 2c       	mov	r2, r1
    3bb2:	31 2c       	mov	r3, r1
    3bb4:	ff e1       	ldi	r31, 0x1F	; 31
    3bb6:	f3 15       	cp	r31, r3
    3bb8:	d8 f0       	brcs	.+54     	; 0x3bf0 <vfprintf+0x98>
    3bba:	8b 32       	cpi	r24, 0x2B	; 43
    3bbc:	79 f0       	breq	.+30     	; 0x3bdc <vfprintf+0x84>
    3bbe:	38 f4       	brcc	.+14     	; 0x3bce <vfprintf+0x76>
    3bc0:	80 32       	cpi	r24, 0x20	; 32
    3bc2:	79 f0       	breq	.+30     	; 0x3be2 <vfprintf+0x8a>
    3bc4:	83 32       	cpi	r24, 0x23	; 35
    3bc6:	a1 f4       	brne	.+40     	; 0x3bf0 <vfprintf+0x98>
    3bc8:	23 2d       	mov	r18, r3
    3bca:	20 61       	ori	r18, 0x10	; 16
    3bcc:	1d c0       	rjmp	.+58     	; 0x3c08 <vfprintf+0xb0>
    3bce:	8d 32       	cpi	r24, 0x2D	; 45
    3bd0:	61 f0       	breq	.+24     	; 0x3bea <vfprintf+0x92>
    3bd2:	80 33       	cpi	r24, 0x30	; 48
    3bd4:	69 f4       	brne	.+26     	; 0x3bf0 <vfprintf+0x98>
    3bd6:	23 2d       	mov	r18, r3
    3bd8:	21 60       	ori	r18, 0x01	; 1
    3bda:	16 c0       	rjmp	.+44     	; 0x3c08 <vfprintf+0xb0>
    3bdc:	83 2d       	mov	r24, r3
    3bde:	82 60       	ori	r24, 0x02	; 2
    3be0:	38 2e       	mov	r3, r24
    3be2:	e3 2d       	mov	r30, r3
    3be4:	e4 60       	ori	r30, 0x04	; 4
    3be6:	3e 2e       	mov	r3, r30
    3be8:	2a c0       	rjmp	.+84     	; 0x3c3e <vfprintf+0xe6>
    3bea:	f3 2d       	mov	r31, r3
    3bec:	f8 60       	ori	r31, 0x08	; 8
    3bee:	1d c0       	rjmp	.+58     	; 0x3c2a <vfprintf+0xd2>
    3bf0:	37 fc       	sbrc	r3, 7
    3bf2:	2d c0       	rjmp	.+90     	; 0x3c4e <vfprintf+0xf6>
    3bf4:	20 ed       	ldi	r18, 0xD0	; 208
    3bf6:	28 0f       	add	r18, r24
    3bf8:	2a 30       	cpi	r18, 0x0A	; 10
    3bfa:	40 f0       	brcs	.+16     	; 0x3c0c <vfprintf+0xb4>
    3bfc:	8e 32       	cpi	r24, 0x2E	; 46
    3bfe:	b9 f4       	brne	.+46     	; 0x3c2e <vfprintf+0xd6>
    3c00:	36 fc       	sbrc	r3, 6
    3c02:	81 c1       	rjmp	.+770    	; 0x3f06 <vfprintf+0x3ae>
    3c04:	23 2d       	mov	r18, r3
    3c06:	20 64       	ori	r18, 0x40	; 64
    3c08:	32 2e       	mov	r3, r18
    3c0a:	19 c0       	rjmp	.+50     	; 0x3c3e <vfprintf+0xe6>
    3c0c:	36 fe       	sbrs	r3, 6
    3c0e:	06 c0       	rjmp	.+12     	; 0x3c1c <vfprintf+0xc4>
    3c10:	8a e0       	ldi	r24, 0x0A	; 10
    3c12:	98 9e       	mul	r9, r24
    3c14:	20 0d       	add	r18, r0
    3c16:	11 24       	eor	r1, r1
    3c18:	92 2e       	mov	r9, r18
    3c1a:	11 c0       	rjmp	.+34     	; 0x3c3e <vfprintf+0xe6>
    3c1c:	ea e0       	ldi	r30, 0x0A	; 10
    3c1e:	2e 9e       	mul	r2, r30
    3c20:	20 0d       	add	r18, r0
    3c22:	11 24       	eor	r1, r1
    3c24:	22 2e       	mov	r2, r18
    3c26:	f3 2d       	mov	r31, r3
    3c28:	f0 62       	ori	r31, 0x20	; 32
    3c2a:	3f 2e       	mov	r3, r31
    3c2c:	08 c0       	rjmp	.+16     	; 0x3c3e <vfprintf+0xe6>
    3c2e:	8c 36       	cpi	r24, 0x6C	; 108
    3c30:	21 f4       	brne	.+8      	; 0x3c3a <vfprintf+0xe2>
    3c32:	83 2d       	mov	r24, r3
    3c34:	80 68       	ori	r24, 0x80	; 128
    3c36:	38 2e       	mov	r3, r24
    3c38:	02 c0       	rjmp	.+4      	; 0x3c3e <vfprintf+0xe6>
    3c3a:	88 36       	cpi	r24, 0x68	; 104
    3c3c:	41 f4       	brne	.+16     	; 0x3c4e <vfprintf+0xf6>
    3c3e:	f7 01       	movw	r30, r14
    3c40:	93 fd       	sbrc	r25, 3
    3c42:	85 91       	lpm	r24, Z+
    3c44:	93 ff       	sbrs	r25, 3
    3c46:	81 91       	ld	r24, Z+
    3c48:	7f 01       	movw	r14, r30
    3c4a:	81 11       	cpse	r24, r1
    3c4c:	b3 cf       	rjmp	.-154    	; 0x3bb4 <vfprintf+0x5c>
    3c4e:	98 2f       	mov	r25, r24
    3c50:	9f 7d       	andi	r25, 0xDF	; 223
    3c52:	95 54       	subi	r25, 0x45	; 69
    3c54:	93 30       	cpi	r25, 0x03	; 3
    3c56:	28 f4       	brcc	.+10     	; 0x3c62 <vfprintf+0x10a>
    3c58:	0c 5f       	subi	r16, 0xFC	; 252
    3c5a:	1f 4f       	sbci	r17, 0xFF	; 255
    3c5c:	9f e3       	ldi	r25, 0x3F	; 63
    3c5e:	99 83       	std	Y+1, r25	; 0x01
    3c60:	0d c0       	rjmp	.+26     	; 0x3c7c <vfprintf+0x124>
    3c62:	83 36       	cpi	r24, 0x63	; 99
    3c64:	31 f0       	breq	.+12     	; 0x3c72 <vfprintf+0x11a>
    3c66:	83 37       	cpi	r24, 0x73	; 115
    3c68:	71 f0       	breq	.+28     	; 0x3c86 <vfprintf+0x12e>
    3c6a:	83 35       	cpi	r24, 0x53	; 83
    3c6c:	09 f0       	breq	.+2      	; 0x3c70 <vfprintf+0x118>
    3c6e:	59 c0       	rjmp	.+178    	; 0x3d22 <vfprintf+0x1ca>
    3c70:	21 c0       	rjmp	.+66     	; 0x3cb4 <vfprintf+0x15c>
    3c72:	f8 01       	movw	r30, r16
    3c74:	80 81       	ld	r24, Z
    3c76:	89 83       	std	Y+1, r24	; 0x01
    3c78:	0e 5f       	subi	r16, 0xFE	; 254
    3c7a:	1f 4f       	sbci	r17, 0xFF	; 255
    3c7c:	88 24       	eor	r8, r8
    3c7e:	83 94       	inc	r8
    3c80:	91 2c       	mov	r9, r1
    3c82:	53 01       	movw	r10, r6
    3c84:	13 c0       	rjmp	.+38     	; 0x3cac <vfprintf+0x154>
    3c86:	28 01       	movw	r4, r16
    3c88:	f2 e0       	ldi	r31, 0x02	; 2
    3c8a:	4f 0e       	add	r4, r31
    3c8c:	51 1c       	adc	r5, r1
    3c8e:	f8 01       	movw	r30, r16
    3c90:	a0 80       	ld	r10, Z
    3c92:	b1 80       	ldd	r11, Z+1	; 0x01
    3c94:	36 fe       	sbrs	r3, 6
    3c96:	03 c0       	rjmp	.+6      	; 0x3c9e <vfprintf+0x146>
    3c98:	69 2d       	mov	r22, r9
    3c9a:	70 e0       	ldi	r23, 0x00	; 0
    3c9c:	02 c0       	rjmp	.+4      	; 0x3ca2 <vfprintf+0x14a>
    3c9e:	6f ef       	ldi	r22, 0xFF	; 255
    3ca0:	7f ef       	ldi	r23, 0xFF	; 255
    3ca2:	c5 01       	movw	r24, r10
    3ca4:	0e 94 98 1f 	call	0x3f30	; 0x3f30 <strnlen>
    3ca8:	4c 01       	movw	r8, r24
    3caa:	82 01       	movw	r16, r4
    3cac:	f3 2d       	mov	r31, r3
    3cae:	ff 77       	andi	r31, 0x7F	; 127
    3cb0:	3f 2e       	mov	r3, r31
    3cb2:	16 c0       	rjmp	.+44     	; 0x3ce0 <vfprintf+0x188>
    3cb4:	28 01       	movw	r4, r16
    3cb6:	22 e0       	ldi	r18, 0x02	; 2
    3cb8:	42 0e       	add	r4, r18
    3cba:	51 1c       	adc	r5, r1
    3cbc:	f8 01       	movw	r30, r16
    3cbe:	a0 80       	ld	r10, Z
    3cc0:	b1 80       	ldd	r11, Z+1	; 0x01
    3cc2:	36 fe       	sbrs	r3, 6
    3cc4:	03 c0       	rjmp	.+6      	; 0x3ccc <vfprintf+0x174>
    3cc6:	69 2d       	mov	r22, r9
    3cc8:	70 e0       	ldi	r23, 0x00	; 0
    3cca:	02 c0       	rjmp	.+4      	; 0x3cd0 <vfprintf+0x178>
    3ccc:	6f ef       	ldi	r22, 0xFF	; 255
    3cce:	7f ef       	ldi	r23, 0xFF	; 255
    3cd0:	c5 01       	movw	r24, r10
    3cd2:	0e 94 8d 1f 	call	0x3f1a	; 0x3f1a <strnlen_P>
    3cd6:	4c 01       	movw	r8, r24
    3cd8:	f3 2d       	mov	r31, r3
    3cda:	f0 68       	ori	r31, 0x80	; 128
    3cdc:	3f 2e       	mov	r3, r31
    3cde:	82 01       	movw	r16, r4
    3ce0:	33 fc       	sbrc	r3, 3
    3ce2:	1b c0       	rjmp	.+54     	; 0x3d1a <vfprintf+0x1c2>
    3ce4:	82 2d       	mov	r24, r2
    3ce6:	90 e0       	ldi	r25, 0x00	; 0
    3ce8:	88 16       	cp	r8, r24
    3cea:	99 06       	cpc	r9, r25
    3cec:	b0 f4       	brcc	.+44     	; 0x3d1a <vfprintf+0x1c2>
    3cee:	b6 01       	movw	r22, r12
    3cf0:	80 e2       	ldi	r24, 0x20	; 32
    3cf2:	90 e0       	ldi	r25, 0x00	; 0
    3cf4:	0e 94 b3 1f 	call	0x3f66	; 0x3f66 <fputc>
    3cf8:	2a 94       	dec	r2
    3cfa:	f4 cf       	rjmp	.-24     	; 0x3ce4 <vfprintf+0x18c>
    3cfc:	f5 01       	movw	r30, r10
    3cfe:	37 fc       	sbrc	r3, 7
    3d00:	85 91       	lpm	r24, Z+
    3d02:	37 fe       	sbrs	r3, 7
    3d04:	81 91       	ld	r24, Z+
    3d06:	5f 01       	movw	r10, r30
    3d08:	b6 01       	movw	r22, r12
    3d0a:	90 e0       	ldi	r25, 0x00	; 0
    3d0c:	0e 94 b3 1f 	call	0x3f66	; 0x3f66 <fputc>
    3d10:	21 10       	cpse	r2, r1
    3d12:	2a 94       	dec	r2
    3d14:	21 e0       	ldi	r18, 0x01	; 1
    3d16:	82 1a       	sub	r8, r18
    3d18:	91 08       	sbc	r9, r1
    3d1a:	81 14       	cp	r8, r1
    3d1c:	91 04       	cpc	r9, r1
    3d1e:	71 f7       	brne	.-36     	; 0x3cfc <vfprintf+0x1a4>
    3d20:	e8 c0       	rjmp	.+464    	; 0x3ef2 <vfprintf+0x39a>
    3d22:	84 36       	cpi	r24, 0x64	; 100
    3d24:	11 f0       	breq	.+4      	; 0x3d2a <vfprintf+0x1d2>
    3d26:	89 36       	cpi	r24, 0x69	; 105
    3d28:	41 f5       	brne	.+80     	; 0x3d7a <vfprintf+0x222>
    3d2a:	f8 01       	movw	r30, r16
    3d2c:	37 fe       	sbrs	r3, 7
    3d2e:	07 c0       	rjmp	.+14     	; 0x3d3e <vfprintf+0x1e6>
    3d30:	60 81       	ld	r22, Z
    3d32:	71 81       	ldd	r23, Z+1	; 0x01
    3d34:	82 81       	ldd	r24, Z+2	; 0x02
    3d36:	93 81       	ldd	r25, Z+3	; 0x03
    3d38:	0c 5f       	subi	r16, 0xFC	; 252
    3d3a:	1f 4f       	sbci	r17, 0xFF	; 255
    3d3c:	08 c0       	rjmp	.+16     	; 0x3d4e <vfprintf+0x1f6>
    3d3e:	60 81       	ld	r22, Z
    3d40:	71 81       	ldd	r23, Z+1	; 0x01
    3d42:	07 2e       	mov	r0, r23
    3d44:	00 0c       	add	r0, r0
    3d46:	88 0b       	sbc	r24, r24
    3d48:	99 0b       	sbc	r25, r25
    3d4a:	0e 5f       	subi	r16, 0xFE	; 254
    3d4c:	1f 4f       	sbci	r17, 0xFF	; 255
    3d4e:	f3 2d       	mov	r31, r3
    3d50:	ff 76       	andi	r31, 0x6F	; 111
    3d52:	3f 2e       	mov	r3, r31
    3d54:	97 ff       	sbrs	r25, 7
    3d56:	09 c0       	rjmp	.+18     	; 0x3d6a <vfprintf+0x212>
    3d58:	90 95       	com	r25
    3d5a:	80 95       	com	r24
    3d5c:	70 95       	com	r23
    3d5e:	61 95       	neg	r22
    3d60:	7f 4f       	sbci	r23, 0xFF	; 255
    3d62:	8f 4f       	sbci	r24, 0xFF	; 255
    3d64:	9f 4f       	sbci	r25, 0xFF	; 255
    3d66:	f0 68       	ori	r31, 0x80	; 128
    3d68:	3f 2e       	mov	r3, r31
    3d6a:	2a e0       	ldi	r18, 0x0A	; 10
    3d6c:	30 e0       	ldi	r19, 0x00	; 0
    3d6e:	a3 01       	movw	r20, r6
    3d70:	0e 94 ef 1f 	call	0x3fde	; 0x3fde <__ultoa_invert>
    3d74:	88 2e       	mov	r8, r24
    3d76:	86 18       	sub	r8, r6
    3d78:	45 c0       	rjmp	.+138    	; 0x3e04 <vfprintf+0x2ac>
    3d7a:	85 37       	cpi	r24, 0x75	; 117
    3d7c:	31 f4       	brne	.+12     	; 0x3d8a <vfprintf+0x232>
    3d7e:	23 2d       	mov	r18, r3
    3d80:	2f 7e       	andi	r18, 0xEF	; 239
    3d82:	b2 2e       	mov	r11, r18
    3d84:	2a e0       	ldi	r18, 0x0A	; 10
    3d86:	30 e0       	ldi	r19, 0x00	; 0
    3d88:	25 c0       	rjmp	.+74     	; 0x3dd4 <vfprintf+0x27c>
    3d8a:	93 2d       	mov	r25, r3
    3d8c:	99 7f       	andi	r25, 0xF9	; 249
    3d8e:	b9 2e       	mov	r11, r25
    3d90:	8f 36       	cpi	r24, 0x6F	; 111
    3d92:	c1 f0       	breq	.+48     	; 0x3dc4 <vfprintf+0x26c>
    3d94:	18 f4       	brcc	.+6      	; 0x3d9c <vfprintf+0x244>
    3d96:	88 35       	cpi	r24, 0x58	; 88
    3d98:	79 f0       	breq	.+30     	; 0x3db8 <vfprintf+0x260>
    3d9a:	b5 c0       	rjmp	.+362    	; 0x3f06 <vfprintf+0x3ae>
    3d9c:	80 37       	cpi	r24, 0x70	; 112
    3d9e:	19 f0       	breq	.+6      	; 0x3da6 <vfprintf+0x24e>
    3da0:	88 37       	cpi	r24, 0x78	; 120
    3da2:	21 f0       	breq	.+8      	; 0x3dac <vfprintf+0x254>
    3da4:	b0 c0       	rjmp	.+352    	; 0x3f06 <vfprintf+0x3ae>
    3da6:	e9 2f       	mov	r30, r25
    3da8:	e0 61       	ori	r30, 0x10	; 16
    3daa:	be 2e       	mov	r11, r30
    3dac:	b4 fe       	sbrs	r11, 4
    3dae:	0d c0       	rjmp	.+26     	; 0x3dca <vfprintf+0x272>
    3db0:	fb 2d       	mov	r31, r11
    3db2:	f4 60       	ori	r31, 0x04	; 4
    3db4:	bf 2e       	mov	r11, r31
    3db6:	09 c0       	rjmp	.+18     	; 0x3dca <vfprintf+0x272>
    3db8:	34 fe       	sbrs	r3, 4
    3dba:	0a c0       	rjmp	.+20     	; 0x3dd0 <vfprintf+0x278>
    3dbc:	29 2f       	mov	r18, r25
    3dbe:	26 60       	ori	r18, 0x06	; 6
    3dc0:	b2 2e       	mov	r11, r18
    3dc2:	06 c0       	rjmp	.+12     	; 0x3dd0 <vfprintf+0x278>
    3dc4:	28 e0       	ldi	r18, 0x08	; 8
    3dc6:	30 e0       	ldi	r19, 0x00	; 0
    3dc8:	05 c0       	rjmp	.+10     	; 0x3dd4 <vfprintf+0x27c>
    3dca:	20 e1       	ldi	r18, 0x10	; 16
    3dcc:	30 e0       	ldi	r19, 0x00	; 0
    3dce:	02 c0       	rjmp	.+4      	; 0x3dd4 <vfprintf+0x27c>
    3dd0:	20 e1       	ldi	r18, 0x10	; 16
    3dd2:	32 e0       	ldi	r19, 0x02	; 2
    3dd4:	f8 01       	movw	r30, r16
    3dd6:	b7 fe       	sbrs	r11, 7
    3dd8:	07 c0       	rjmp	.+14     	; 0x3de8 <vfprintf+0x290>
    3dda:	60 81       	ld	r22, Z
    3ddc:	71 81       	ldd	r23, Z+1	; 0x01
    3dde:	82 81       	ldd	r24, Z+2	; 0x02
    3de0:	93 81       	ldd	r25, Z+3	; 0x03
    3de2:	0c 5f       	subi	r16, 0xFC	; 252
    3de4:	1f 4f       	sbci	r17, 0xFF	; 255
    3de6:	06 c0       	rjmp	.+12     	; 0x3df4 <vfprintf+0x29c>
    3de8:	60 81       	ld	r22, Z
    3dea:	71 81       	ldd	r23, Z+1	; 0x01
    3dec:	80 e0       	ldi	r24, 0x00	; 0
    3dee:	90 e0       	ldi	r25, 0x00	; 0
    3df0:	0e 5f       	subi	r16, 0xFE	; 254
    3df2:	1f 4f       	sbci	r17, 0xFF	; 255
    3df4:	a3 01       	movw	r20, r6
    3df6:	0e 94 ef 1f 	call	0x3fde	; 0x3fde <__ultoa_invert>
    3dfa:	88 2e       	mov	r8, r24
    3dfc:	86 18       	sub	r8, r6
    3dfe:	fb 2d       	mov	r31, r11
    3e00:	ff 77       	andi	r31, 0x7F	; 127
    3e02:	3f 2e       	mov	r3, r31
    3e04:	36 fe       	sbrs	r3, 6
    3e06:	0d c0       	rjmp	.+26     	; 0x3e22 <vfprintf+0x2ca>
    3e08:	23 2d       	mov	r18, r3
    3e0a:	2e 7f       	andi	r18, 0xFE	; 254
    3e0c:	a2 2e       	mov	r10, r18
    3e0e:	89 14       	cp	r8, r9
    3e10:	58 f4       	brcc	.+22     	; 0x3e28 <vfprintf+0x2d0>
    3e12:	34 fe       	sbrs	r3, 4
    3e14:	0b c0       	rjmp	.+22     	; 0x3e2c <vfprintf+0x2d4>
    3e16:	32 fc       	sbrc	r3, 2
    3e18:	09 c0       	rjmp	.+18     	; 0x3e2c <vfprintf+0x2d4>
    3e1a:	83 2d       	mov	r24, r3
    3e1c:	8e 7e       	andi	r24, 0xEE	; 238
    3e1e:	a8 2e       	mov	r10, r24
    3e20:	05 c0       	rjmp	.+10     	; 0x3e2c <vfprintf+0x2d4>
    3e22:	b8 2c       	mov	r11, r8
    3e24:	a3 2c       	mov	r10, r3
    3e26:	03 c0       	rjmp	.+6      	; 0x3e2e <vfprintf+0x2d6>
    3e28:	b8 2c       	mov	r11, r8
    3e2a:	01 c0       	rjmp	.+2      	; 0x3e2e <vfprintf+0x2d6>
    3e2c:	b9 2c       	mov	r11, r9
    3e2e:	a4 fe       	sbrs	r10, 4
    3e30:	0f c0       	rjmp	.+30     	; 0x3e50 <vfprintf+0x2f8>
    3e32:	fe 01       	movw	r30, r28
    3e34:	e8 0d       	add	r30, r8
    3e36:	f1 1d       	adc	r31, r1
    3e38:	80 81       	ld	r24, Z
    3e3a:	80 33       	cpi	r24, 0x30	; 48
    3e3c:	21 f4       	brne	.+8      	; 0x3e46 <vfprintf+0x2ee>
    3e3e:	9a 2d       	mov	r25, r10
    3e40:	99 7e       	andi	r25, 0xE9	; 233
    3e42:	a9 2e       	mov	r10, r25
    3e44:	09 c0       	rjmp	.+18     	; 0x3e58 <vfprintf+0x300>
    3e46:	a2 fe       	sbrs	r10, 2
    3e48:	06 c0       	rjmp	.+12     	; 0x3e56 <vfprintf+0x2fe>
    3e4a:	b3 94       	inc	r11
    3e4c:	b3 94       	inc	r11
    3e4e:	04 c0       	rjmp	.+8      	; 0x3e58 <vfprintf+0x300>
    3e50:	8a 2d       	mov	r24, r10
    3e52:	86 78       	andi	r24, 0x86	; 134
    3e54:	09 f0       	breq	.+2      	; 0x3e58 <vfprintf+0x300>
    3e56:	b3 94       	inc	r11
    3e58:	a3 fc       	sbrc	r10, 3
    3e5a:	11 c0       	rjmp	.+34     	; 0x3e7e <vfprintf+0x326>
    3e5c:	a0 fe       	sbrs	r10, 0
    3e5e:	06 c0       	rjmp	.+12     	; 0x3e6c <vfprintf+0x314>
    3e60:	b2 14       	cp	r11, r2
    3e62:	88 f4       	brcc	.+34     	; 0x3e86 <vfprintf+0x32e>
    3e64:	28 0c       	add	r2, r8
    3e66:	92 2c       	mov	r9, r2
    3e68:	9b 18       	sub	r9, r11
    3e6a:	0e c0       	rjmp	.+28     	; 0x3e88 <vfprintf+0x330>
    3e6c:	b2 14       	cp	r11, r2
    3e6e:	60 f4       	brcc	.+24     	; 0x3e88 <vfprintf+0x330>
    3e70:	b6 01       	movw	r22, r12
    3e72:	80 e2       	ldi	r24, 0x20	; 32
    3e74:	90 e0       	ldi	r25, 0x00	; 0
    3e76:	0e 94 b3 1f 	call	0x3f66	; 0x3f66 <fputc>
    3e7a:	b3 94       	inc	r11
    3e7c:	f7 cf       	rjmp	.-18     	; 0x3e6c <vfprintf+0x314>
    3e7e:	b2 14       	cp	r11, r2
    3e80:	18 f4       	brcc	.+6      	; 0x3e88 <vfprintf+0x330>
    3e82:	2b 18       	sub	r2, r11
    3e84:	02 c0       	rjmp	.+4      	; 0x3e8a <vfprintf+0x332>
    3e86:	98 2c       	mov	r9, r8
    3e88:	21 2c       	mov	r2, r1
    3e8a:	a4 fe       	sbrs	r10, 4
    3e8c:	10 c0       	rjmp	.+32     	; 0x3eae <vfprintf+0x356>
    3e8e:	b6 01       	movw	r22, r12
    3e90:	80 e3       	ldi	r24, 0x30	; 48
    3e92:	90 e0       	ldi	r25, 0x00	; 0
    3e94:	0e 94 b3 1f 	call	0x3f66	; 0x3f66 <fputc>
    3e98:	a2 fe       	sbrs	r10, 2
    3e9a:	17 c0       	rjmp	.+46     	; 0x3eca <vfprintf+0x372>
    3e9c:	a1 fc       	sbrc	r10, 1
    3e9e:	03 c0       	rjmp	.+6      	; 0x3ea6 <vfprintf+0x34e>
    3ea0:	88 e7       	ldi	r24, 0x78	; 120
    3ea2:	90 e0       	ldi	r25, 0x00	; 0
    3ea4:	02 c0       	rjmp	.+4      	; 0x3eaa <vfprintf+0x352>
    3ea6:	88 e5       	ldi	r24, 0x58	; 88
    3ea8:	90 e0       	ldi	r25, 0x00	; 0
    3eaa:	b6 01       	movw	r22, r12
    3eac:	0c c0       	rjmp	.+24     	; 0x3ec6 <vfprintf+0x36e>
    3eae:	8a 2d       	mov	r24, r10
    3eb0:	86 78       	andi	r24, 0x86	; 134
    3eb2:	59 f0       	breq	.+22     	; 0x3eca <vfprintf+0x372>
    3eb4:	a1 fe       	sbrs	r10, 1
    3eb6:	02 c0       	rjmp	.+4      	; 0x3ebc <vfprintf+0x364>
    3eb8:	8b e2       	ldi	r24, 0x2B	; 43
    3eba:	01 c0       	rjmp	.+2      	; 0x3ebe <vfprintf+0x366>
    3ebc:	80 e2       	ldi	r24, 0x20	; 32
    3ebe:	a7 fc       	sbrc	r10, 7
    3ec0:	8d e2       	ldi	r24, 0x2D	; 45
    3ec2:	b6 01       	movw	r22, r12
    3ec4:	90 e0       	ldi	r25, 0x00	; 0
    3ec6:	0e 94 b3 1f 	call	0x3f66	; 0x3f66 <fputc>
    3eca:	89 14       	cp	r8, r9
    3ecc:	38 f4       	brcc	.+14     	; 0x3edc <vfprintf+0x384>
    3ece:	b6 01       	movw	r22, r12
    3ed0:	80 e3       	ldi	r24, 0x30	; 48
    3ed2:	90 e0       	ldi	r25, 0x00	; 0
    3ed4:	0e 94 b3 1f 	call	0x3f66	; 0x3f66 <fputc>
    3ed8:	9a 94       	dec	r9
    3eda:	f7 cf       	rjmp	.-18     	; 0x3eca <vfprintf+0x372>
    3edc:	8a 94       	dec	r8
    3ede:	f3 01       	movw	r30, r6
    3ee0:	e8 0d       	add	r30, r8
    3ee2:	f1 1d       	adc	r31, r1
    3ee4:	80 81       	ld	r24, Z
    3ee6:	b6 01       	movw	r22, r12
    3ee8:	90 e0       	ldi	r25, 0x00	; 0
    3eea:	0e 94 b3 1f 	call	0x3f66	; 0x3f66 <fputc>
    3eee:	81 10       	cpse	r8, r1
    3ef0:	f5 cf       	rjmp	.-22     	; 0x3edc <vfprintf+0x384>
    3ef2:	22 20       	and	r2, r2
    3ef4:	09 f4       	brne	.+2      	; 0x3ef8 <vfprintf+0x3a0>
    3ef6:	42 ce       	rjmp	.-892    	; 0x3b7c <vfprintf+0x24>
    3ef8:	b6 01       	movw	r22, r12
    3efa:	80 e2       	ldi	r24, 0x20	; 32
    3efc:	90 e0       	ldi	r25, 0x00	; 0
    3efe:	0e 94 b3 1f 	call	0x3f66	; 0x3f66 <fputc>
    3f02:	2a 94       	dec	r2
    3f04:	f6 cf       	rjmp	.-20     	; 0x3ef2 <vfprintf+0x39a>
    3f06:	f6 01       	movw	r30, r12
    3f08:	86 81       	ldd	r24, Z+6	; 0x06
    3f0a:	97 81       	ldd	r25, Z+7	; 0x07
    3f0c:	02 c0       	rjmp	.+4      	; 0x3f12 <vfprintf+0x3ba>
    3f0e:	8f ef       	ldi	r24, 0xFF	; 255
    3f10:	9f ef       	ldi	r25, 0xFF	; 255
    3f12:	2b 96       	adiw	r28, 0x0b	; 11
    3f14:	e2 e1       	ldi	r30, 0x12	; 18
    3f16:	0c 94 69 20 	jmp	0x40d2	; 0x40d2 <__epilogue_restores__>

00003f1a <strnlen_P>:
    3f1a:	fc 01       	movw	r30, r24
    3f1c:	05 90       	lpm	r0, Z+
    3f1e:	61 50       	subi	r22, 0x01	; 1
    3f20:	70 40       	sbci	r23, 0x00	; 0
    3f22:	01 10       	cpse	r0, r1
    3f24:	d8 f7       	brcc	.-10     	; 0x3f1c <strnlen_P+0x2>
    3f26:	80 95       	com	r24
    3f28:	90 95       	com	r25
    3f2a:	8e 0f       	add	r24, r30
    3f2c:	9f 1f       	adc	r25, r31
    3f2e:	08 95       	ret

00003f30 <strnlen>:
    3f30:	fc 01       	movw	r30, r24
    3f32:	61 50       	subi	r22, 0x01	; 1
    3f34:	70 40       	sbci	r23, 0x00	; 0
    3f36:	01 90       	ld	r0, Z+
    3f38:	01 10       	cpse	r0, r1
    3f3a:	d8 f7       	brcc	.-10     	; 0x3f32 <strnlen+0x2>
    3f3c:	80 95       	com	r24
    3f3e:	90 95       	com	r25
    3f40:	8e 0f       	add	r24, r30
    3f42:	9f 1f       	adc	r25, r31
    3f44:	08 95       	ret

00003f46 <strrev>:
    3f46:	dc 01       	movw	r26, r24
    3f48:	fc 01       	movw	r30, r24
    3f4a:	67 2f       	mov	r22, r23
    3f4c:	71 91       	ld	r23, Z+
    3f4e:	77 23       	and	r23, r23
    3f50:	e1 f7       	brne	.-8      	; 0x3f4a <strrev+0x4>
    3f52:	32 97       	sbiw	r30, 0x02	; 2
    3f54:	04 c0       	rjmp	.+8      	; 0x3f5e <strrev+0x18>
    3f56:	7c 91       	ld	r23, X
    3f58:	6d 93       	st	X+, r22
    3f5a:	70 83       	st	Z, r23
    3f5c:	62 91       	ld	r22, -Z
    3f5e:	ae 17       	cp	r26, r30
    3f60:	bf 07       	cpc	r27, r31
    3f62:	c8 f3       	brcs	.-14     	; 0x3f56 <strrev+0x10>
    3f64:	08 95       	ret

00003f66 <fputc>:
    3f66:	0f 93       	push	r16
    3f68:	1f 93       	push	r17
    3f6a:	cf 93       	push	r28
    3f6c:	df 93       	push	r29
    3f6e:	fb 01       	movw	r30, r22
    3f70:	23 81       	ldd	r18, Z+3	; 0x03
    3f72:	21 fd       	sbrc	r18, 1
    3f74:	03 c0       	rjmp	.+6      	; 0x3f7c <fputc+0x16>
    3f76:	8f ef       	ldi	r24, 0xFF	; 255
    3f78:	9f ef       	ldi	r25, 0xFF	; 255
    3f7a:	2c c0       	rjmp	.+88     	; 0x3fd4 <fputc+0x6e>
    3f7c:	22 ff       	sbrs	r18, 2
    3f7e:	16 c0       	rjmp	.+44     	; 0x3fac <fputc+0x46>
    3f80:	46 81       	ldd	r20, Z+6	; 0x06
    3f82:	57 81       	ldd	r21, Z+7	; 0x07
    3f84:	24 81       	ldd	r18, Z+4	; 0x04
    3f86:	35 81       	ldd	r19, Z+5	; 0x05
    3f88:	42 17       	cp	r20, r18
    3f8a:	53 07       	cpc	r21, r19
    3f8c:	44 f4       	brge	.+16     	; 0x3f9e <fputc+0x38>
    3f8e:	a0 81       	ld	r26, Z
    3f90:	b1 81       	ldd	r27, Z+1	; 0x01
    3f92:	9d 01       	movw	r18, r26
    3f94:	2f 5f       	subi	r18, 0xFF	; 255
    3f96:	3f 4f       	sbci	r19, 0xFF	; 255
    3f98:	31 83       	std	Z+1, r19	; 0x01
    3f9a:	20 83       	st	Z, r18
    3f9c:	8c 93       	st	X, r24
    3f9e:	26 81       	ldd	r18, Z+6	; 0x06
    3fa0:	37 81       	ldd	r19, Z+7	; 0x07
    3fa2:	2f 5f       	subi	r18, 0xFF	; 255
    3fa4:	3f 4f       	sbci	r19, 0xFF	; 255
    3fa6:	37 83       	std	Z+7, r19	; 0x07
    3fa8:	26 83       	std	Z+6, r18	; 0x06
    3faa:	14 c0       	rjmp	.+40     	; 0x3fd4 <fputc+0x6e>
    3fac:	8b 01       	movw	r16, r22
    3fae:	ec 01       	movw	r28, r24
    3fb0:	fb 01       	movw	r30, r22
    3fb2:	00 84       	ldd	r0, Z+8	; 0x08
    3fb4:	f1 85       	ldd	r31, Z+9	; 0x09
    3fb6:	e0 2d       	mov	r30, r0
    3fb8:	09 95       	icall
    3fba:	89 2b       	or	r24, r25
    3fbc:	e1 f6       	brne	.-72     	; 0x3f76 <fputc+0x10>
    3fbe:	d8 01       	movw	r26, r16
    3fc0:	16 96       	adiw	r26, 0x06	; 6
    3fc2:	8d 91       	ld	r24, X+
    3fc4:	9c 91       	ld	r25, X
    3fc6:	17 97       	sbiw	r26, 0x07	; 7
    3fc8:	01 96       	adiw	r24, 0x01	; 1
    3fca:	17 96       	adiw	r26, 0x07	; 7
    3fcc:	9c 93       	st	X, r25
    3fce:	8e 93       	st	-X, r24
    3fd0:	16 97       	sbiw	r26, 0x06	; 6
    3fd2:	ce 01       	movw	r24, r28
    3fd4:	df 91       	pop	r29
    3fd6:	cf 91       	pop	r28
    3fd8:	1f 91       	pop	r17
    3fda:	0f 91       	pop	r16
    3fdc:	08 95       	ret

00003fde <__ultoa_invert>:
    3fde:	fa 01       	movw	r30, r20
    3fe0:	aa 27       	eor	r26, r26
    3fe2:	28 30       	cpi	r18, 0x08	; 8
    3fe4:	51 f1       	breq	.+84     	; 0x403a <__ultoa_invert+0x5c>
    3fe6:	20 31       	cpi	r18, 0x10	; 16
    3fe8:	81 f1       	breq	.+96     	; 0x404a <__ultoa_invert+0x6c>
    3fea:	e8 94       	clt
    3fec:	6f 93       	push	r22
    3fee:	6e 7f       	andi	r22, 0xFE	; 254
    3ff0:	6e 5f       	subi	r22, 0xFE	; 254
    3ff2:	7f 4f       	sbci	r23, 0xFF	; 255
    3ff4:	8f 4f       	sbci	r24, 0xFF	; 255
    3ff6:	9f 4f       	sbci	r25, 0xFF	; 255
    3ff8:	af 4f       	sbci	r26, 0xFF	; 255
    3ffa:	b1 e0       	ldi	r27, 0x01	; 1
    3ffc:	3e d0       	rcall	.+124    	; 0x407a <__ultoa_invert+0x9c>
    3ffe:	b4 e0       	ldi	r27, 0x04	; 4
    4000:	3c d0       	rcall	.+120    	; 0x407a <__ultoa_invert+0x9c>
    4002:	67 0f       	add	r22, r23
    4004:	78 1f       	adc	r23, r24
    4006:	89 1f       	adc	r24, r25
    4008:	9a 1f       	adc	r25, r26
    400a:	a1 1d       	adc	r26, r1
    400c:	68 0f       	add	r22, r24
    400e:	79 1f       	adc	r23, r25
    4010:	8a 1f       	adc	r24, r26
    4012:	91 1d       	adc	r25, r1
    4014:	a1 1d       	adc	r26, r1
    4016:	6a 0f       	add	r22, r26
    4018:	71 1d       	adc	r23, r1
    401a:	81 1d       	adc	r24, r1
    401c:	91 1d       	adc	r25, r1
    401e:	a1 1d       	adc	r26, r1
    4020:	20 d0       	rcall	.+64     	; 0x4062 <__ultoa_invert+0x84>
    4022:	09 f4       	brne	.+2      	; 0x4026 <__ultoa_invert+0x48>
    4024:	68 94       	set
    4026:	3f 91       	pop	r19
    4028:	2a e0       	ldi	r18, 0x0A	; 10
    402a:	26 9f       	mul	r18, r22
    402c:	11 24       	eor	r1, r1
    402e:	30 19       	sub	r19, r0
    4030:	30 5d       	subi	r19, 0xD0	; 208
    4032:	31 93       	st	Z+, r19
    4034:	de f6       	brtc	.-74     	; 0x3fec <__ultoa_invert+0xe>
    4036:	cf 01       	movw	r24, r30
    4038:	08 95       	ret
    403a:	46 2f       	mov	r20, r22
    403c:	47 70       	andi	r20, 0x07	; 7
    403e:	40 5d       	subi	r20, 0xD0	; 208
    4040:	41 93       	st	Z+, r20
    4042:	b3 e0       	ldi	r27, 0x03	; 3
    4044:	0f d0       	rcall	.+30     	; 0x4064 <__ultoa_invert+0x86>
    4046:	c9 f7       	brne	.-14     	; 0x403a <__ultoa_invert+0x5c>
    4048:	f6 cf       	rjmp	.-20     	; 0x4036 <__ultoa_invert+0x58>
    404a:	46 2f       	mov	r20, r22
    404c:	4f 70       	andi	r20, 0x0F	; 15
    404e:	40 5d       	subi	r20, 0xD0	; 208
    4050:	4a 33       	cpi	r20, 0x3A	; 58
    4052:	18 f0       	brcs	.+6      	; 0x405a <__ultoa_invert+0x7c>
    4054:	49 5d       	subi	r20, 0xD9	; 217
    4056:	31 fd       	sbrc	r19, 1
    4058:	40 52       	subi	r20, 0x20	; 32
    405a:	41 93       	st	Z+, r20
    405c:	02 d0       	rcall	.+4      	; 0x4062 <__ultoa_invert+0x84>
    405e:	a9 f7       	brne	.-22     	; 0x404a <__ultoa_invert+0x6c>
    4060:	ea cf       	rjmp	.-44     	; 0x4036 <__ultoa_invert+0x58>
    4062:	b4 e0       	ldi	r27, 0x04	; 4
    4064:	a6 95       	lsr	r26
    4066:	97 95       	ror	r25
    4068:	87 95       	ror	r24
    406a:	77 95       	ror	r23
    406c:	67 95       	ror	r22
    406e:	ba 95       	dec	r27
    4070:	c9 f7       	brne	.-14     	; 0x4064 <__ultoa_invert+0x86>
    4072:	00 97       	sbiw	r24, 0x00	; 0
    4074:	61 05       	cpc	r22, r1
    4076:	71 05       	cpc	r23, r1
    4078:	08 95       	ret
    407a:	9b 01       	movw	r18, r22
    407c:	ac 01       	movw	r20, r24
    407e:	0a 2e       	mov	r0, r26
    4080:	06 94       	lsr	r0
    4082:	57 95       	ror	r21
    4084:	47 95       	ror	r20
    4086:	37 95       	ror	r19
    4088:	27 95       	ror	r18
    408a:	ba 95       	dec	r27
    408c:	c9 f7       	brne	.-14     	; 0x4080 <__ultoa_invert+0xa2>
    408e:	62 0f       	add	r22, r18
    4090:	73 1f       	adc	r23, r19
    4092:	84 1f       	adc	r24, r20
    4094:	95 1f       	adc	r25, r21
    4096:	a0 1d       	adc	r26, r0
    4098:	08 95       	ret

0000409a <__prologue_saves__>:
    409a:	2f 92       	push	r2
    409c:	3f 92       	push	r3
    409e:	4f 92       	push	r4
    40a0:	5f 92       	push	r5
    40a2:	6f 92       	push	r6
    40a4:	7f 92       	push	r7
    40a6:	8f 92       	push	r8
    40a8:	9f 92       	push	r9
    40aa:	af 92       	push	r10
    40ac:	bf 92       	push	r11
    40ae:	cf 92       	push	r12
    40b0:	df 92       	push	r13
    40b2:	ef 92       	push	r14
    40b4:	ff 92       	push	r15
    40b6:	0f 93       	push	r16
    40b8:	1f 93       	push	r17
    40ba:	cf 93       	push	r28
    40bc:	df 93       	push	r29
    40be:	cd b7       	in	r28, 0x3d	; 61
    40c0:	de b7       	in	r29, 0x3e	; 62
    40c2:	ca 1b       	sub	r28, r26
    40c4:	db 0b       	sbc	r29, r27
    40c6:	0f b6       	in	r0, 0x3f	; 63
    40c8:	f8 94       	cli
    40ca:	de bf       	out	0x3e, r29	; 62
    40cc:	0f be       	out	0x3f, r0	; 63
    40ce:	cd bf       	out	0x3d, r28	; 61
    40d0:	09 94       	ijmp

000040d2 <__epilogue_restores__>:
    40d2:	2a 88       	ldd	r2, Y+18	; 0x12
    40d4:	39 88       	ldd	r3, Y+17	; 0x11
    40d6:	48 88       	ldd	r4, Y+16	; 0x10
    40d8:	5f 84       	ldd	r5, Y+15	; 0x0f
    40da:	6e 84       	ldd	r6, Y+14	; 0x0e
    40dc:	7d 84       	ldd	r7, Y+13	; 0x0d
    40de:	8c 84       	ldd	r8, Y+12	; 0x0c
    40e0:	9b 84       	ldd	r9, Y+11	; 0x0b
    40e2:	aa 84       	ldd	r10, Y+10	; 0x0a
    40e4:	b9 84       	ldd	r11, Y+9	; 0x09
    40e6:	c8 84       	ldd	r12, Y+8	; 0x08
    40e8:	df 80       	ldd	r13, Y+7	; 0x07
    40ea:	ee 80       	ldd	r14, Y+6	; 0x06
    40ec:	fd 80       	ldd	r15, Y+5	; 0x05
    40ee:	0c 81       	ldd	r16, Y+4	; 0x04
    40f0:	1b 81       	ldd	r17, Y+3	; 0x03
    40f2:	aa 81       	ldd	r26, Y+2	; 0x02
    40f4:	b9 81       	ldd	r27, Y+1	; 0x01
    40f6:	ce 0f       	add	r28, r30
    40f8:	d1 1d       	adc	r29, r1
    40fa:	0f b6       	in	r0, 0x3f	; 63
    40fc:	f8 94       	cli
    40fe:	de bf       	out	0x3e, r29	; 62
    4100:	0f be       	out	0x3f, r0	; 63
    4102:	cd bf       	out	0x3d, r28	; 61
    4104:	ed 01       	movw	r28, r26
    4106:	08 95       	ret

00004108 <_exit>:
    4108:	f8 94       	cli

0000410a <__stop_program>:
    410a:	ff cf       	rjmp	.-2      	; 0x410a <__stop_program>
